(dp0
Vhttp://dbpedia.org/property/origin
p1
(lp2
S'origin'
p3
asVhttp://dbpedia.org/property/architecturalStyle
p4
(lp5
S'architecture'
p6
aS'style of architecture'
p7
aS'architectural style'
p8
asVhttp://dbpedia.org/resource/Andy_Dean
p9
(lp10
S'Andy Dean'
p11
asVhttp://dbpedia.org/ontology/iataLocationIdentifier
p12
(lp13
S'IATA airport code'
p14
aS'uio'
p15
aS'International Air Transport Association airport code'
p16
asVhttp://dbpedia.org/resource/Ratnakar_Pai
p17
(lp18
S'Ratnakar Pai'
p19
asVhttp://dbpedia.org/resource/EPR_paradox
p20
(lp21
S'EPR paradox'
p22
asVhttp://dbpedia.org/resource/Gokuldham_High_School
p23
(lp24
S'Gokuldham High School'
p25
asVhttp://dbpedia.org/resource/Apple_Inc.
p26
(lp27
S'Apple Inc.'
p28
asVhttp://dbpedia.org/ontology/Cricketer
p29
(lp30
S'cricketer'
p31
asVhttp://dbpedia.org/ontology/city
p32
(lp33
S'city'
p34
asVhttp://dbpedia.org/resource/Bob_Harvie
p35
(lp36
S'Bob Harvie'
p37
asVhttp://dbpedia.org/resource/Cupertino,_California
p38
(lp39
S'Cupertino, California'
p40
asVhttp://dbpedia.org/resource/Internet_radio
p41
(lp42
S'Internet radio'
p43
asVhttp://dbpedia.org/resource/The_Winning_Way
p44
(lp45
S'The Winning Way'
p46
asVhttp://dbpedia.org/ontology/gameEngine
p47
(lp48
S'engine of software'
p49
aS'software engine'
p50
aS'powered by'
p51
aS'game engine'
p52
asVhttp://dbpedia.org/property/settlement
p53
(lp54
S'is in the local government area of'
p55
aS'is in the voivodeship of'
p56
aS'based in'
p57
aS'is in the state of'
p58
aS'Indian reservation'
p59
aS'is in the principal area of'
p60
aS'is in the region of'
p61
aS'is in the Indian reservation of'
p62
aS'is in the district of'
p63
aS'in'
p64
aS'is in the shire of'
p65
aS'in administrative unit'
p66
aS'is in the administrative region of'
p67
aS'city'
p68
aS'is in the territory of'
p69
aS'happens in'
p70
aS'locality'
p71
aS'is in the Indian reserve of'
p72
aS'is in the administrative unit'
p73
aS'is in the municipality of'
p74
aS'is in the parish of'
p75
aS'state'
p76
aS'is in the department of'
p77
aS'location (administrative territorial entity)'
p78
aS'is in the borough of'
p79
aS'is in the county of'
p80
aS'is in the village of'
p81
aS'is in the ward of'
p82
aS'is in the commune of'
p83
aS'located in the administrative unit'
p84
aS'located in administrative unit'
p85
aS'located in the administrative territorial entity'
p86
aS'is in the rural city of'
p87
aS'is in the city of'
p88
aS'town'
p89
aS'in the administrative unit'
p90
aS'administrative territorial entity'
p91
aS'is in the settlement of'
p92
aS'is in the town of'
p93
aS'is in administrative unit'
p94
aS'is in the province of'
p95
aS'is in the prefecture of'
p96
aS'is located in'
p97
asVhttp://dbpedia.org/resource/The_Walt_Disney_Company
p98
(lp99
S'The Walt Disney Company'
p100
asVhttp://dbpedia.org/resource/Willow_Bay
p101
(lp102
S'Willow Bay'
p103
asVhttp://dbpedia.org/resource/Shreeram_Shankar_Abhyankar
p104
(lp105
S'Shreeram Shankar Abhyankar'
p106
asVhttp://dbpedia.org/resource/Cyber_City,_Kochi
p107
(lp108
S'Cyber City, Kochi'
p109
asVhttp://dbpedia.org/ontology/birthName
p110
(lp111
S'born as'
p112
aS'birth name (monolingual text)'
p113
aS'maiden name'
p114
aS'bn'
p115
aS'nee'
p116
aS'birthname'
p117
aS'name at birth'
p118
aS'bname'
p119
aS'n\xc3\xa9e'
p120
aS'birth name'
p121
aS'full name at birth'
p122
asVhttp://dbpedia.org/ontology/isPartOf
p123
(lp124
S'part of-property'
p125
aS'part of'
p126
aS'section of'
p127
aS'system of'
p128
aS'assembly of'
p129
aS'meronym of'
p130
aS'within a set'
p131
aS'merged with'
p132
aS'merged into'
p133
aS'subsystem of'
p134
aS'subassembly of'
p135
aS'contained within'
p136
asVhttp://dbpedia.org/ontology/nationality
p137
(lp138
S'nationality'
p139
asVhttp://dbpedia.org/property/generalManager
p140
(lp141
S'general manager'
p142
asVhttp://dbpedia.org/resource/Simon_Cowell
p143
(lp144
S'Simon Cowell'
p145
asVhttp://dbpedia.org/ontology/bnfId
p146
(lp147
S'BnF identifier'
p148
aS'Biblioth\xc3\xa8que nationale de France ID'
p149
aS'BnF ID'
p150
asVhttp://dbpedia.org/ontology/landingDate
p151
(lp152
S'spacecraft landing date'
p153
aS'time of spacecraft landing'
p154
aS'spacecraft landing time'
p155
asVhttp://dbpedia.org/resource/Interface_Builder
p156
(lp157
S'Interface Builder'
p158
asVhttp://dbpedia.org/property/battle
p159
(lp160
S'in action'
p161
aS'participated in conflict'
p162
aS'in conflict'
p163
aS'theatre'
p164
aS'participant in conflict'
p165
aS'battle'
p166
aS'theater'
p167
aS'war'
p168
aS'conflict'
p169
asVhttp://dbpedia.org/resource/Executive_director
p170
(lp171
S'Executive director'
p172
asVhttp://dbpedia.org/resource/Batch_Monitor
p173
(lp174
S'Batch Monitor'
p175
asVhttp://dbpedia.org/resource/Trump_Productions
p176
(lp177
S'Trump Productions'
p178
asVhttp://dbpedia.org/property/type
p179
(lp180
S'type'
p181
asVhttp://dbpedia.org/property/chromosome
p182
(lp183
S'on chromosome'
p184
aS'chromosome'
p185
asVhttp://dbpedia.org/ontology/launchDate
p186
(lp187
S'spacecraft launch date'
p188
aS'launch time'
p189
aS'date of spacecraft launch'
p190
aS'launch date'
p191
aS'time of spacecraft launch'
p192
asVhttp://dbpedia.org/resource/Romance_film
p193
(lp194
S'Romance film'
p195
asVhttp://dbpedia.org/ontology/diocese
p196
(lp197
S'eparchia'
p198
aS'eparchy'
p199
aS'diocese'
p200
asVhttp://dbpedia.org/resource/Scottish_Americans
p201
(lp202
S'Scottish Americans'
p203
asVhttp://dbpedia.org/resource/Geometry_Wars
p204
(lp205
S'Geometry Wars'
p206
asVhttp://dbpedia.org/resource/Gil_Amelio
p207
(lp208
S'Gil Amelio'
p209
asVhttp://dbpedia.org/property/ulanId
p210
(lp211
S'ULAN'
p212
aS'JPG'
p213
aS'Getty ULAN'
p214
aS'Union List of Artist Names'
p215
aS'ULAN identifier'
p216
aS'ULAN ID'
p217
asVhttp://dbpedia.org/resource/Quartz_Composer
p218
(lp219
S'Quartz Composer'
p220
asVhttp://dbpedia.org/ontology/predecessor
p221
(lp222
S'predecessor'
p223
asVhttp://dbpedia.org/ontology/TelevisionShow
p224
(lp225
S'television show'
p226
asVhttp://dbpedia.org/property/constituency
p227
(lp228
S'constituency'
p229
asVhttp://dbpedia.org/resource/Canonical_(company)
p230
(lp231
S'Canonical (company)'
p232
asVhttp://dbpedia.org/ontology/RugbyPlayer
p233
(lp234
S'rugby player'
p235
asVhttp://dbpedia.org/ontology/Presenter
p236
(lp237
S'presenter'
p238
asVhttp://dbpedia.org/property/computingPlatform
p239
(lp240
S'platform'
p241
aS'game platform'
p242
aS'computing platform'
p243
aS'platforms'
p244
asVhttp://dbpedia.org/ontology/viafId
p245
(lp246
S'VIAF identifier'
p247
aS'Virtual International Authority File'
p248
aS'VIAF'
p249
aS'VIAF ID'
p250
asVhttp://dbpedia.org/resource/Tiger_Shroff
p251
(lp252
S'Tiger Shroff'
p253
asVhttp://dbpedia.org/ontology/coden
p254
(lp255
S'CODEN'
p256
asVhttp://dbpedia.org/property/killedBy
p257
(lp258
S'executioner'
p259
aS'killed by'
p260
aS'murderer'
p261
aS'assassinated by'
p262
aS'murdered by'
p263
aS'killer'
p264
aS'executed by'
p265
aS'mortally wounded by'
p266
aS'slaughtered by'
p267
aS'slain by'
p268
aS'assassin'
p269
asVhttp://dbpedia.org/ontology/namedAfter
p270
(lp271
S'namesake'
p272
aS'toponym'
p273
aS'etymology'
p274
aS'name after'
p275
aS'named after'
p276
aS'named for'
p277
aS'eponym'
p278
asVhttp://dbpedia.org/property/birthDate
p279
(lp280
S'year of birth'
p281
aS'DOB'
p282
aS'date of birth'
p283
aS'birthdate'
p284
aS'birth year'
p285
aS'birthyear'
p286
aS'birthday'
p287
aS'born on'
p288
aS'birth date'
p289
asVhttp://dbpedia.org/ontology/individualisedGnd
p290
(lp291
S'DNB authorities'
p292
aS'GND'
p293
aS'Universal Authority File'
p294
aS'dbpedia:IndividualisedGnd'
p295
aS'GND identifier'
p296
aS'PND'
p297
aS'GND ID'
p298
aS'Integrated Authority File'
p299
asVhttp://dbpedia.org/resource/Cardiff
p300
(lp301
S'Cardiff'
p302
asVhttp://dbpedia.org/resource/Beats_Electronics
p303
(lp304
S'Beats Electronics'
p305
asVhttp://dbpedia.org/resource/IBM
p306
(lp307
S'IBM'
p308
asVhttp://dbpedia.org/ontology/foundationPlace
p309
(lp310
S'foundation place'
p311
asVhttp://dbpedia.org/resource/Sony_ESPN
p312
(lp313
S'Sony ESPN'
p314
asVhttp://dbpedia.org/resource/Vijayta_Films
p315
(lp316
S'Vijayta Films'
p317
asVhttp://dbpedia.org/resource/Imran_Khan
p318
(lp319
S'Imran Khan'
p320
asVhttp://dbpedia.org/property/follows
p321
(lp322
S'predecessor'
p323
aS'prequel is'
p324
aS'sequel of'
p325
aS'follows'
p326
aS'previous is'
p327
aS'succeeds to'
p328
aS'before was'
p329
aS'preceded by'
p330
aS'split from'
p331
asVhttp://dbpedia.org/ontology/producer
p332
(lp333
S'producer'
p334
asVhttp://dbpedia.org/property/sisterNames
p335
(lp336
S'sister names'
p337
asVhttp://dbpedia.org/resource/Hodder_&_Stoughton
p338
(lp339
S'Hodder & Stoughton'
p340
asVhttp://dbpedia.org/resource/Philadelphia
p341
(lp342
S'Philadelphia'
p343
asVhttp://dbpedia.org/property/designer
p344
(lp345
S'has designer'
p346
aS'designer'
p347
aS'designed by'
p348
asVhttp://dbpedia.org/resource/Maurice_A._Deane_School_of_Law
p349
(lp350
S'Maurice A. Deane School of Law'
p351
asVhttp://dbpedia.org/ontology/crosses
p352
(lp353
S'tunnel under'
p354
aS'over'
p355
aS'crosses'
p356
aS'bridge over'
p357
aS'under'
p358
asVhttp://dbpedia.org/resource/IOS_6
p359
(lp360
S'IOS 6'
p361
asVhttp://dbpedia.org/resource/Vadapalani
p362
(lp363
S'Vadapalani'
p364
asVhttp://dbpedia.org/ontology/coverArtist
p365
(lp366
S'cover artist'
p367
asVhttp://dbpedia.org/property/terytCode
p368
(lp369
S'Polish municipal ID'
p370
aS'Poland municipal ID'
p371
aS'TERYT municipality code'
p372
asVhttp://dbpedia.org/ontology/highestPoint
p373
(lp374
S'highest peak'
p375
aS'highest point'
p376
aS'zenith'
p377
asVhttp://dbpedia.org/property/keyPeople
p378
(lp379
S'key people'
p380
asVhttp://dbpedia.org/ontology/related
p381
(lp382
S'related'
p383
asVhttp://dbpedia.org/ontology/subsidiary
p384
(lp385
S'subsidiary'
p386
asVhttp://dbpedia.org/property/predecessor
p387
(lp388
S'predecessor'
p389
asVhttp://dbpedia.org/resource/Ata_Pata_Laapata
p390
(lp391
S'Ata Pata Laapata'
p392
asVhttp://dbpedia.org/resource/Sony_Pictures_Networks
p393
(lp394
S'Sony Pictures Networks'
p395
asVhttp://dbpedia.org/property/atomicNumber
p396
(lp397
S'number of protons'
p398
aS'Z'
p399
aS'atomic number'
p400
aS'atom number'
p401
aS'proton number'
p402
asVhttp://dbpedia.org/ontology/movement
p403
(lp404
S'school'
p405
aS'movement'
p406
asVhttp://dbpedia.org/resource/Roosevelt_family
p407
(lp408
S'Roosevelt family'
p409
asVhttp://dbpedia.org/ontology/Hospital
p410
(lp411
S'hospital'
p412
asVhttp://dbpedia.org/ontology/locationCountry
p413
(lp414
S'pastwo'
p415
asVhttp://dbpedia.org/ontology/openingTheme
p416
(lp417
S'opening theme'
p418
asVhttp://dbpedia.org/ontology/President
p419
(lp420
S'president'
p421
asVhttp://dbpedia.org/property/publisher
p422
(lp423
S'publisher'
p424
asVhttp://dbpedia.org/ontology/populationTotal
p425
(lp426
S'inhabitants'
p427
aS'human population'
p428
aS'population'
p429
asVhttp://dbpedia.org/resource/Rehana_Sultan
p430
(lp431
S'Rehana Sultan'
p432
asVhttp://dbpedia.org/resource/Thumri
p433
(lp434
S'Thumri'
p435
asVhttp://dbpedia.org/property/ndlId
p436
(lp437
S'NDLA ID'
p438
aS'NDL Authorities'
p439
aS'NDLA identifier'
p440
aS'ndl'
p441
aS'NDL identifier'
p442
aS'NDLAuth ID'
p443
aS'NDL ID'
p444
asVhttp://dbpedia.org/resource/IPod_Touch_(6th_generation)
p445
(lp446
S'IPod Touch (6th generation)'
p447
asVhttp://dbpedia.org/property/launchVehicle
p448
(lp449
S'carrier rocket'
p450
aS'space launch vehicle'
p451
aS'launch vehicle'
p452
asVhttp://dbpedia.org/ontology/inseeCode
p453
(lp454
S'municipality code (France)'
p455
aS'INSEE municipality code'
p456
asVhttp://dbpedia.org/property/lccnId
p457
(lp458
S'LCAuth ID'
p459
aS'LCAuth'
p460
aS'LoC Authorities'
p461
aS'Library of Congress Control Number'
p462
aS'LCAuth identifier'
p463
aS'Library of Congress Name Authority File'
p464
aS'LCCN identifier'
p465
aS'Library of Congress Subject Headings'
p466
aS'LCNAF'
p467
aS'LCSH'
p468
asVhttp://dbpedia.org/property/manager
p469
(lp470
S'coach'
p471
aS'head coach'
p472
aS'team manager'
p473
aS'manager'
p474
aS'senior coach'
p475
aS'club manager'
p476
asVhttp://dbpedia.org/resource/CSI:_Miami_(video_game)
p477
(lp478
S'CSI: Miami (video game)'
p479
asVhttp://dbpedia.org/ontology/stateOfOrigin
p480
(lp481
S'state of origin'
p482
asVhttp://dbpedia.org/resource/Film_director
p483
(lp484
S'Film director'
p485
asVhttp://dbpedia.org/ontology/operatingSystem
p486
(lp487
S'operating system'
p488
asVhttp://dbpedia.org/resource/RNS_Institute_of_Technology
p489
(lp490
S'RNS Institute of Technology'
p491
asVhttp://dbpedia.org/ontology/date
p492
(lp493
S'"'
p494
aS"'"
p495
aS'year'
p496
aS'when'
p497
aS'at time'
p498
aS'point in time'
p499
aS'time'
p500
aS'date'
p501
aS'as of'
p502
aS'time of event'
p503
asVhttp://dbpedia.org/property/series
p504
(lp505
S'series'
p506
asVhttp://dbpedia.org/resource/Visvesvaraya_Technological_University
p507
(lp508
S'Visvesvaraya Technological University'
p509
asVhttp://dbpedia.org/resource/Thomas_Chisholm_Anstey
p510
(lp511
S'Thomas Chisholm Anstey'
p512
asVhttp://dbpedia.org/resource/Warner_Bros.
p513
(lp514
S'Warner Bros.'
p515
asVhttp://dbpedia.org/ontology/MusicalArtist
p516
(lp517
S'musical artist'
p518
asVhttp://dbpedia.org/resource/Haathi_Ke_Daant
p519
(lp520
S'Haathi Ke Daant'
p521
asVhttp://dbpedia.org/ontology/Person
p522
(lp523
S'person'
p524
asVhttp://dbpedia.org/resource/Peterson_Hill
p525
(lp526
S'Peterson Hill'
p527
asVhttp://dbpedia.org/resource/555_California_Street
p528
(lp529
S'555 California Street'
p530
asVhttp://dbpedia.org/resource/Personal_computer
p531
(lp532
S'Personal computer'
p533
asVhttp://dbpedia.org/property/iso6393Code
p534
(lp535
S'iso 639-3'
p536
aS'ISO 639-3 code'
p537
asVhttp://dbpedia.org/resource/Michael_Eisner
p538
(lp539
S'Michael Eisner'
p540
asVhttp://dbpedia.org/resource/Isleworth
p541
(lp542
S'Isleworth'
p543
asVhttp://dbpedia.org/resource/End-user_license_agreement
p544
(lp545
S'End-user license agreement'
p546
asVhttp://dbpedia.org/resource/MGM_Interactive
p547
(lp548
S'MGM Interactive'
p549
asVhttp://dbpedia.org/ontology/capital
p550
(lp551
S'administrative centre'
p552
aS'capital'
p553
aS'principal place'
p554
aS'capital town'
p555
aS'county seat'
p556
aS'chef-lieu'
p557
aS'administrative headquarters'
p558
aS'capital city'
p559
asVhttp://dbpedia.org/resource/Dharmendra
p560
(lp561
S'Dharmendra'
p562
asVhttp://dbpedia.org/resource/Luke_Wood
p563
(lp564
S'Luke Wood'
p565
asVhttp://dbpedia.org/property/viafId
p566
g246
sVhttp://dbpedia.org/resource/Physician
p567
(lp568
S'Physician'
p569
asVhttp://dbpedia.org/ontology/imdbId
p570
(lp571
S'IMDb ID'
p572
aS'imdb'
p573
aS'IMDb'
p574
aS'IMDb identifier'
p575
aS'Internet Movie Database'
p576
asVhttp://dbpedia.org/ontology/owningCompany
p577
(lp578
S'owning company'
p579
asVhttp://dbpedia.org/resource/Priya_Dutt
p580
(lp581
S'Priya Dutt'
p582
asVhttp://dbpedia.org/resource/Xcode
p583
(lp584
S'Xcode'
p585
asVhttp://dbpedia.org/resource/Call_of_Duty:_Zombies
p586
(lp587
S'Call of Duty: Zombies'
p588
asVhttp://dbpedia.org/ontology/Website
p589
(lp590
S'website'
p591
asVhttp://dbpedia.org/property/headquarter
p592
(lp593
S'headquarters location'
p594
aS'HQ'
p595
aS'seat'
p596
aS'admin HQ'
p597
aS'head office location'
p598
aS'principle office'
p599
aS'garrison'
p600
asVhttp://dbpedia.org/resource/The_Celebrity_Apprentice
p601
(lp602
S'The Celebrity Apprentice'
p603
asVhttp://dbpedia.org/resource/Charles_Kushner
p604
(lp605
S'Charles Kushner'
p606
asVhttp://dbpedia.org/resource/Satyadev_Dubey
p607
(lp608
S'Satyadev Dubey'
p609
asVhttp://dbpedia.org/resource/Sony_Kix
p610
(lp611
S'Sony Kix'
p612
asVhttp://dbpedia.org/resource/Objective-C
p613
(lp614
S'Objective-C'
p615
asVhttp://dbpedia.org/ontology/ProgrammingLanguage
p616
(lp617
S'programming language'
p618
asVhttp://dbpedia.org/property/amgid
p619
(lp620
S'AllMovie movie ID'
p621
asVhttp://dbpedia.org/resource/Pageant_Place
p622
(lp623
S'Pageant Place'
p624
asVhttp://dbpedia.org/resource/Zombie_Highway
p625
(lp626
S'Zombie Highway'
p627
asVhttp://dbpedia.org/resource/Radio_Ceylon
p628
(lp629
S'Radio Ceylon'
p630
asVhttp://dbpedia.org/resource/Aditya_Chaudhary
p631
(lp632
S'Aditya Chaudhary'
p633
asVhttp://dbpedia.org/property/einecsNumber
p634
(lp635
S'EINECS No.'
p636
aS'EC No.'
p637
aS'EC no.'
p638
aS'EC#'
p639
aS'European Community number'
p640
asVhttp://dbpedia.org/resource/Actor
p641
(lp642
S'Actor'
p643
asVhttp://dbpedia.org/property/editing
p644
(lp645
S'film editor'
p646
aS'editor'
p647
aS'edited by'
p648
asVhttp://dbpedia.org/resource/Sweet_Dreams_(Are_Made_of_This)
p649
(lp650
S'Sweet Dreams (Are Made of This)'
p651
asVhttp://dbpedia.org/resource/Mike_Markkula
p652
(lp653
S'Mike Markkula'
p654
asVhttp://dbpedia.org/property/movement
p655
g404
sVhttp://dbpedia.org/property/illustrator
p656
(lp657
S'illustrated by'
p658
aS'illustrator'
p659
aS'illustration by'
p660
asVhttp://dbpedia.org/ontology/birthPlace
p661
(lp662
S'birthplace'
p663
aS'birth city'
p664
aS'born at'
p665
aS'birth place'
p666
aS'place of birth'
p667
aS'born in'
p668
aS'location born'
p669
aS'birth location'
p670
aS'POB'
p671
aS'location of birth'
p672
aS'location'
p673
asVhttp://dbpedia.org/property/knownFor
p674
(lp675
S'known for'
p676
asVhttp://dbpedia.org/ontology/Country
p677
(lp678
S'country'
p679
asVhttp://dbpedia.org/property/flag
p680
(lp681
S'image flag'
p682
aS'flag image'
p683
aS'image of flag'
p684
asVhttp://dbpedia.org/resource/New_York_City
p685
(lp686
S'New York City'
p687
asVhttp://dbpedia.org/property/almaMater
p688
(lp689
S'alma mater'
p690
asVhttp://dbpedia.org/resource/Arnold_Schwarzenegger
p691
(lp692
S'Arnold Schwarzenegger'
p693
asVhttp://dbpedia.org/resource/HBO
p694
(lp695
S'HBO'
p696
asVhttp://dbpedia.org/resource/Jamshedpur
p697
(lp698
S'Jamshedpur'
p699
asVhttp://dbpedia.org/ontology/maintainedBy
p700
(lp701
S'administrator'
p702
aS'maintainer'
p703
aS'custodian'
p704
aS'maintenance'
p705
aS'maintained by'
p706
aS'administered by'
p707
asVhttp://dbpedia.org/resource/Limited_liability_company
p708
(lp709
S'Limited liability company'
p710
asVhttp://dbpedia.org/ontology/citizenship
p711
(lp712
S'subject of (country)'
p713
aS'citizen of'
p714
aS'nationality'
p715
aS'country of citizenship'
p716
aS'citizenship'
p717
asVhttp://dbpedia.org/property/isniId
p718
(lp719
S'International Standard Name Identifier'
p720
aS'ISO 27729'
p721
aS'ISNI'
p722
asVhttp://dbpedia.org/resource/Pramod_Mahajan
p723
(lp724
S'Pramod Mahajan'
p725
asVhttp://dbpedia.org/resource/Monica_Sharma
p726
(lp727
S'Monica Sharma'
p728
asVhttp://dbpedia.org/ontology/team
p729
(lp730
S'team played for'
p731
aS'member of sports team'
p732
aS'of team'
p733
aS'member of team'
p734
aS'teams played for'
p735
aS'team'
p736
aS'plays for'
p737
aS'played for'
p738
aS'club played for'
p739
asVhttp://dbpedia.org/property/releaseDate
p740
(lp741
S'year of publication'
p742
aS'time of publication'
p743
aS'initial release'
p744
aS'publication'
p745
aS'publication time'
p746
aS'released'
p747
aS'date of publication'
p748
aS'date published'
p749
aS'published'
p750
aS'date released'
p751
aS'dop'
p752
aS'date of release'
p753
aS'release date'
p754
aS'publication date'
p755
asVhttp://dbpedia.org/resource/CricketArchive
p756
(lp757
S'CricketArchive'
p758
asVhttp://dbpedia.org/resource/Sadiyaan
p759
(lp760
S'Sadiyaan'
p761
asVhttp://dbpedia.org/resource/Beverly_Hills,_California
p762
(lp763
S'Beverly Hills, California'
p764
asVhttp://dbpedia.org/resource/Mike_Judge
p765
(lp766
S'Mike Judge'
p767
asVhttp://dbpedia.org/property/spouse
p768
(lp769
S'wedded to'
p770
aS'consort'
p771
aS'wed'
p772
aS'marry'
p773
aS'married'
p774
aS'married to'
p775
aS'marriage partner'
p776
aS'wife'
p777
aS'partner'
p778
aS'spouse'
p779
aS'husband'
p780
asVhttp://dbpedia.org/resource/Regional_organization
p781
(lp782
S'Regional organization'
p783
asVhttp://dbpedia.org/property/landingDate
p784
g152
sVhttp://dbpedia.org/resource/Manoj_Chandila
p785
(lp786
S'Manoj Chandila'
p787
asVhttp://dbpedia.org/property/cinematography
p788
(lp789
S'director of photography'
p790
aS'cinematographer'
p791
asVhttp://dbpedia.org/resource/Jared_Kushner
p792
(lp793
S'Jared Kushner'
p794
asVhttp://dbpedia.org/resource/Disk_Utility
p795
(lp796
S'Disk Utility'
p797
asVhttp://dbpedia.org/ontology/followedBy
p798
(lp799
S'prequel of'
p800
aS'next is'
p801
aS'succeded by'
p802
aS'sequel is'
p803
aS'precedes'
p804
aS'followed by'
p805
aS'successor'
p806
asVhttp://dbpedia.org/resource/Kondura
p807
(lp808
S'Kondura'
p809
asVhttp://dbpedia.org/resource/Surandai
p810
(lp811
S'Surandai'
p812
asVhttp://dbpedia.org/property/employer
p813
(lp814
S'works at'
p815
aS'employed by'
p816
aS'working for'
p817
aS'workplace'
p818
aS'employer'
p819
asVhttp://dbpedia.org/resource/Epic_Games
p820
(lp821
S'Epic Games'
p822
asVhttp://dbpedia.org/resource/Bharwain
p823
(lp824
S'Bharwain'
p825
asVhttp://dbpedia.org/ontology/ideology
p826
(lp827
S'ideology'
p828
aS'political ideology'
p829
asVhttp://dbpedia.org/ontology/iso31661Code
p830
(lp831
S'ISO 3166-1 alpha-3 code'
p832
aS'country code ISO 3166-1 alpha-3'
p833
asVhttp://dbpedia.org/resource/Macintosh
p834
(lp835
S'Macintosh'
p836
asVhttp://dbpedia.org/resource/Grand_Central_Publishing
p837
(lp838
S'Grand Central Publishing'
p839
asVhttp://dbpedia.org/ontology/crewMember
p840
(lp841
S'crew member'
p842
asVhttp://dbpedia.org/resource/Oxford_College_of_Engineering
p843
(lp844
S'Oxford College of Engineering'
p845
asVhttp://dbpedia.org/ontology/service
p846
(lp847
S'service'
p848
asVhttp://dbpedia.org/resource/Los_Angeles
p849
(lp850
S'Los Angeles'
p851
asVhttp://dbpedia.org/property/company
p852
(lp853
S'company'
p854
asVhttp://dbpedia.org/ontology/ulanId
p855
g211
sVhttp://dbpedia.org/ontology/Actor
p856
(lp857
S'actor'
p858
asVhttp://dbpedia.org/property/mother
p859
(lp860
S'has mother'
p861
aS'parent'
p862
aS'is child of'
p863
aS'mom'
p864
aS'mother'
p865
aS'mum'
p866
aS'is daughter of'
p867
aS'mam'
p868
aS'is son of'
p869
asVhttp://dbpedia.org/resource/IOS_SDK
p870
(lp871
S'IOS SDK'
p872
asVhttp://dbpedia.org/ontology/channel
p873
(lp874
S'channel'
p875
asVhttp://dbpedia.org/property/title
p876
(lp877
S'title'
p878
asVhttp://dbpedia.org/resource/Woodhaven,_Queens
p879
(lp880
S'Woodhaven, Queens'
p881
asVhttp://dbpedia.org/resource/Western_Express_Highway
p882
(lp883
S'Western Express Highway'
p884
asVhttp://dbpedia.org/property/award
p885
(lp886
S'honorary title'
p887
aS'prize awarded'
p888
aS'prize received'
p889
aS'win'
p890
aS'recognition title'
p891
aS'awards received'
p892
aS'award'
p893
aS'awarded'
p894
aS'awards'
p895
aS'medals'
p896
aS'honours'
p897
aS'award received'
p898
aS'honors'
p899
aS'award won'
p900
asVhttp://dbpedia.org/property/address
p901
(lp902
S'street address'
p903
aS'located at street address'
p904
aS'address'
p905
asVhttp://dbpedia.org/ontology/Device
p906
(lp907
S'device'
p908
asVhttp://dbpedia.org/resource/Alex_Ferguson
p909
(lp910
S'Alex Ferguson'
p911
asVhttp://dbpedia.org/ontology/mother
p912
g860
sVhttp://dbpedia.org/resource/Tredegar
p913
(lp914
S'Tredegar'
p915
asVhttp://dbpedia.org/resource/Kaisi_Yeh_Yaariyan
p916
(lp917
S'Kaisi Yeh Yaariyan'
p918
asVhttp://dbpedia.org/ontology/sport
p919
(lp920
S'sport'
p921
asVhttp://dbpedia.org/property/musicBy
p922
(lp923
S'music by'
p924
aS'songwriter'
p925
aS'composed by'
p926
aS'written by'
p927
aS'musical score by'
p928
aS'composer'
p929
asVhttp://dbpedia.org/ontology/ofsCode
p930
(lp931
S'BFS number'
p932
aS'Swiss municipality code'
p933
asVhttp://dbpedia.org/resource/Spain
p934
(lp935
S'Spain'
p936
asVhttp://dbpedia.org/resource/Mobile_phone
p937
(lp938
S'Mobile phone'
p939
asVhttp://dbpedia.org/property/child
p940
(lp941
S'sons'
p942
aS'has son'
p943
aS'daughter'
p944
aS'has kid'
p945
aS'has kids'
p946
aS'has daughter'
p947
aS'kids'
p948
aS'has sons'
p949
aS'son'
p950
aS'has children'
p951
aS'has daughters'
p952
aS'has child'
p953
aS'child'
p954
aS'children'
p955
aS'daughters'
p956
aS'kid'
p957
asVhttp://dbpedia.org/ontology/locationCity
p958
(lp959
S'location city'
p960
asVhttp://dbpedia.org/ontology/elo
p961
(lp962
S'Elo rating'
p963
asVhttp://dbpedia.org/ontology/occupation
p964
(lp965
S'career'
p966
aS'work'
p967
aS'profession'
p968
aS'job'
p969
aS'craft'
p970
aS'employment'
p971
aS'occupation'
p972
asVhttp://dbpedia.org/property/placeOfDeath
p973
(lp974
S'PLACE OF DEATH'
p975
asVhttp://dbpedia.org/resource/Sony_Entertainment_Television_(India)
p976
(lp977
S'Sony Entertainment Television (India)'
p978
asVhttp://dbpedia.org/resource/Politician
p979
(lp980
S'Politician'
p981
asVhttp://dbpedia.org/ontology/compressionRatio
p982
(lp983
S'compression ratio'
p984
asVhttp://dbpedia.org/resource/East_of_England_(European_Parliament_constituency)
p985
(lp986
S'East of England (European Parliament constituency)'
p987
asVhttp://dbpedia.org/resource/Indian_Princess
p988
(lp989
S'Indian Princess'
p990
asVhttp://dbpedia.org/ontology/Bank
p991
(lp992
S'bank'
p993
asVhttp://dbpedia.org/ontology/bibsysId
p994
(lp995
S'BIBSYS identifier'
p996
aS'BIBSYS ID'
p997
asVhttp://dbpedia.org/resource/Mac_OS_X_Panther
p998
(lp999
S'Mac OS X Panther'
p1000
asVhttp://dbpedia.org/resource/Trump_Tower_(New_York_City)
p1001
(lp1002
S'Trump Tower (New York City)'
p1003
asVhttp://dbpedia.org/resource/Sushil_Kumar_Modi
p1004
(lp1005
S'Sushil Kumar Modi'
p1006
asVhttp://dbpedia.org/resource/Computer_science
p1007
(lp1008
S'Computer science'
p1009
asVhttp://dbpedia.org/resource/Karnal
p1010
(lp1011
S'Karnal'
p1012
asVhttp://dbpedia.org/resource/Ableton
p1013
(lp1014
S'Ableton'
p1015
asVhttp://dbpedia.org/property/religion
p1016
(lp1017
S'religion'
p1018
aS'faith'
p1019
aS'life stance'
p1020
aS'religious affiliation'
p1021
aS'denomination'
p1022
asVhttp://dbpedia.org/resource/Sir_J._J._College_of_Architecture
p1023
(lp1024
S'Sir J. J. College of Architecture'
p1025
asVhttp://dbpedia.org/resource/Andheri
p1026
(lp1027
S'Andheri'
p1028
asVhttp://dbpedia.org/ontology/ndlId
p1029
g437
sVhttp://dbpedia.org/resource/Vijay_Krishna_Acharya
p1030
(lp1031
S'Vijay Krishna Acharya'
p1032
asVhttp://dbpedia.org/ontology/sex
p1033
(lp1034
S'woman'
p1035
aS'gender'
p1036
aS'intersex'
p1037
aS'sex'
p1038
aS'biological sex'
p1039
aS'gender expression'
p1040
aS'sex or gender'
p1041
aS'female'
p1042
aS'male'
p1043
aS'gender identity'
p1044
aS'man'
p1045
asVhttp://dbpedia.org/ontology/Politician
p1046
(lp1047
S'politician'
p1048
asVhttp://dbpedia.org/resource/North_India
p1049
(lp1050
S'North India'
p1051
asVhttp://dbpedia.org/resource/Mumbai
p1052
(lp1053
S'Mumbai'
p1054
asVhttp://dbpedia.org/property/maintainedBy
p1055
g701
sVhttp://dbpedia.org/ontology/City
p1056
(lp1057
S'city'
p1058
asVhttp://dbpedia.org/property/highestPoint
p1059
g374
sVhttp://dbpedia.org/property/themeMusicComposer
p1060
(lp1061
S'theme music composer'
p1062
asVhttp://dbpedia.org/resource/Bangalore
p1063
(lp1064
S'Bangalore'
p1065
asVhttp://dbpedia.org/ontology/releaseDate
p1066
g741
sVhttp://dbpedia.org/property/areaCode
p1067
(lp1068
S'telephone numbering plan'
p1069
aS'local dialing code'
p1070
aS'telephone prefix'
p1071
aS'telephone code'
p1072
aS'local calling code'
p1073
aS'STD code'
p1074
aS'area code'
p1075
asVhttp://dbpedia.org/property/industry
p1076
(lp1077
S'sector'
p1078
aS'branch'
p1079
aS'field of action'
p1080
aS'industry'
p1081
aS'field of exercise'
p1082
aS'economic branch'
p1083
asVhttp://dbpedia.org/ontology/TelevisionStation
p1084
(lp1085
S'television station'
p1086
asVhttp://dbpedia.org/ontology/residence
p1087
(lp1088
S'official residence'
p1089
asVhttp://dbpedia.org/property/birthName
p1090
g111
sVhttp://dbpedia.org/property/leaderName
p1091
(lp1092
S'leader name'
p1093
asVhttp://dbpedia.org/resource/Dillagi_(1999_film)
p1094
(lp1095
S'Dillagi (1999 film)'
p1096
asVhttp://dbpedia.org/ontology/board
p1097
(lp1098
S'board'
p1099
asVhttp://dbpedia.org/resource/HDIL
p1100
(lp1101
S'HDIL'
p1102
asVhttp://dbpedia.org/property/launchDate
p1103
g187
sVhttp://dbpedia.org/resource/Ken_Mok
p1104
(lp1105
S'Ken Mok'
p1106
asVhttp://dbpedia.org/property/ofsCode
p1107
g931
sVhttp://dbpedia.org/resource/For_the_Love_of_Money
p1108
(lp1109
S'For the Love of Money'
p1110
asVhttp://dbpedia.org/resource/Sudesh_Berry
p1111
(lp1112
S'Sudesh Berry'
p1113
asVhttp://dbpedia.org/resource/Manhattan
p1114
(lp1115
S'Manhattan'
p1116
asVhttp://dbpedia.org/property/compressionRatio
p1117
g983
sVhttp://dbpedia.org/resource/InstallAnywhere
p1118
(lp1119
S'InstallAnywhere'
p1120
asVhttp://dbpedia.org/property/residence
p1121
g1088
sVhttp://dbpedia.org/ontology/terytCode
p1122
g369
sVhttp://dbpedia.org/ontology/apparentMagnitude
p1123
(lp1124
S'apparent magnitude'
p1125
asVhttp://dbpedia.org/property/coach
p1126
(lp1127
S'coach'
p1128
asVhttp://dbpedia.org/resource/Suchitra_Singh
p1129
(lp1130
S'Suchitra Singh'
p1131
asVhttp://dbpedia.org/resource/Cricket
p1132
(lp1133
S'Cricket'
p1134
asVhttp://dbpedia.org/property/coatOfArms
p1135
(lp1136
S'symbol'
p1137
aS'heraldic emblem'
p1138
aS'arms'
p1139
aS'coat of arms image'
p1140
aS'CoA image'
p1141
aS'heraldic representation'
p1142
asVhttp://dbpedia.org/resource/Border_(1997_film)
p1143
(lp1144
S'Border (1997 film)'
p1145
asVhttp://dbpedia.org/property/anthem
p1146
(lp1147
S'anthem'
p1148
aS'official song'
p1149
aS'march'
p1150
aS'national anthem'
p1151
asVhttp://dbpedia.org/property/individualisedGnd
p1152
g291
sVhttp://dbpedia.org/ontology/restingPlace
p1153
(lp1154
S'resting place'
p1155
asVhttp://dbpedia.org/ontology/successor
p1156
(lp1157
S'successor'
p1158
asVhttp://dbpedia.org/resource/Apache_License
p1159
(lp1160
S'Apache License'
p1161
asVhttp://dbpedia.org/resource/Association_football
p1162
(lp1163
S'Association football'
p1164
asVhttp://dbpedia.org/ontology/Organisation
p1165
(lp1166
S'organisation'
p1167
asVhttp://dbpedia.org/ontology/signature
p1168
(lp1169
S'autograph'
p1170
aS'signature'
p1171
asVhttp://dbpedia.org/property/currency
p1172
(lp1173
S'currency'
p1174
aS'used money'
p1175
aS'base currency'
p1176
asVhttp://dbpedia.org/resource/Seed_Eight
p1177
(lp1178
S'Seed Eight'
p1179
asVhttp://dbpedia.org/ontology/fuelSystem
p1180
(lp1181
S'fuel system'
p1182
asVhttp://dbpedia.org/ontology/icaoAirlineCode
p1183
(lp1184
S'International Civil Aviation Organization airline designator'
p1185
aS'ICAO airline designator'
p1186
asVhttp://dbpedia.org/property/deathDate
p1187
(lp1188
S'death'
p1189
aS'date of death'
p1190
aS'year of death'
p1191
aS'died on'
p1192
aS'dead'
p1193
aS'DOD'
p1194
aS'date of the end'
p1195
aS'deathdate'
p1196
aS'death date'
p1197
asVhttp://dbpedia.org/resource/Warrior_High
p1198
(lp1199
S'Warrior High'
p1200
asVhttp://dbpedia.org/resource/Chamku
p1201
(lp1202
S'Chamku'
p1203
asVhttp://dbpedia.org/resource/Ashwin_Mushran
p1204
(lp1205
S'Ashwin Mushran'
p1206
asVhttp://dbpedia.org/ontology/isbn
p1207
(lp1208
S'International Standard Book Number-10'
p1209
aS'ISBN-10'
p1210
aS'isbn-10'
p1211
asVhttp://dbpedia.org/ontology/okatoCode
p1212
(lp1213
S'OKATO identifier'
p1214
aS'OKATO ID'
p1215
asVhttp://dbpedia.org/property/genre
p1216
(lp1217
S'kind of music'
p1218
aS'literary genre'
p1219
aS'music genre'
p1220
aS'film genre'
p1221
aS'genre'
p1222
aS'artistic genre'
p1223
asVhttp://dbpedia.org/resource/Mohit_Malhotra
p1224
(lp1225
S'Mohit Malhotra'
p1226
asVhttp://dbpedia.org/resource/Neerja
p1227
(lp1228
S'Neerja'
p1229
asVhttp://dbpedia.org/ontology/originalLanguage
p1230
(lp1231
S'original language'
p1232
aS'language of the original work'
p1233
aS'original language of work'
p1234
aS'created on language'
p1235
asVhttp://dbpedia.org/property/cpu
p1236
(lp1237
S'CPU'
p1238
aS'central processing unit'
p1239
asVhttp://dbpedia.org/property/label
p1240
(lp1241
S'label'
p1242
asVhttp://dbpedia.org/ontology/publisher
p1243
(lp1244
S'publisher'
p1245
asVhttp://dbpedia.org/property/inflow
p1246
(lp1247
S'lake inflows'
p1248
aS'lake inflow'
p1249
aS'inflows'
p1250
aS'inflow'
p1251
asVhttp://dbpedia.org/ontology/region
p1252
(lp1253
S'region'
p1254
asVhttp://dbpedia.org/ontology/University
p1255
(lp1256
S'university'
p1257
asVhttp://dbpedia.org/resource/Apple_Mighty_Mouse
p1258
(lp1259
S'Apple Mighty Mouse'
p1260
asVhttp://dbpedia.org/ontology/ecNumber
p1261
(lp1262
S'Enzyme Commission number'
p1263
aS'EC number'
p1264
asVhttp://dbpedia.org/property/distributor
p1265
(lp1266
S'distributor'
p1267
aS'distributed by'
p1268
asVhttp://dbpedia.org/ontology/isil
p1269
(lp1270
S'ISIL ID'
p1271
aS'International Standard Identifier for Libraries and Related Organizations'
p1272
aS'ISIL'
p1273
asVhttp://dbpedia.org/resource/Hindi
p1274
(lp1275
S'Hindi'
p1276
asVhttp://dbpedia.org/resource/Jalandhar
p1277
(lp1278
S'Jalandhar'
p1279
asVhttp://dbpedia.org/ontology/chromosome
p1280
g183
sVhttp://dbpedia.org/property/homeport
p1281
(lp1282
S'homeport'
p1283
aS'home port'
p1284
asVhttp://dbpedia.org/resource/Dil_Vil_Pyar_Vyar
p1285
(lp1286
S'Dil Vil Pyar Vyar'
p1287
asVhttp://dbpedia.org/resource/Bank
p1288
(lp1289
S'Bank'
p1290
asVhttp://dbpedia.org/resource/Cooperage_Ground
p1291
(lp1292
S'Cooperage Ground'
p1293
asVhttp://dbpedia.org/resource/Indian_Princess_International
p1294
(lp1295
S'Indian Princess International'
p1296
asVhttp://dbpedia.org/ontology/manufacturer
p1297
(lp1298
S'made by'
p1299
aS'builder'
p1300
aS'mfr'
p1301
aS'producer (of product)'
p1302
aS'built by'
p1303
aS'manufactured by'
p1304
aS'maker'
p1305
aS'manufacturer'
p1306
asVhttp://dbpedia.org/property/iataLocationIdentifier
p1307
g13
sVhttp://dbpedia.org/resource/Nazneen_Ghaani
p1308
(lp1309
S'Nazneen Ghaani'
p1310
asVhttp://dbpedia.org/ontology/lccnId
p1311
g458
sVhttp://dbpedia.org/resource/Belgaum_division
p1312
(lp1313
S'Belgaum division'
p1314
asVhttp://dbpedia.org/resource/Phir_Bhi_Apna_Hai
p1315
(lp1316
S'Phir Bhi Apna Hai'
p1317
asVhttp://dbpedia.org/resource/Mehtab_(actress)
p1318
(lp1319
S'Mehtab (actress)'
p1320
asVhttp://dbpedia.org/property/doctoralStudent
p1321
(lp1322
S'doctoral student'
p1323
asVhttp://dbpedia.org/ontology/Sport
p1324
(lp1325
S'sport'
p1326
asVhttp://dbpedia.org/resource/Real_Time_Streaming_Protocol
p1327
(lp1328
S'Real Time Streaming Protocol'
p1329
asVhttp://dbpedia.org/resource/Voltas
p1330
(lp1331
S'Voltas'
p1332
asVhttp://dbpedia.org/resource/Bizarre_Creations
p1333
(lp1334
S'Bizarre Creations'
p1335
asVhttp://dbpedia.org/ontology/birthDate
p1336
g280
sVhttp://dbpedia.org/ontology/GovernmentAgency
p1337
(lp1338
S'government agency'
p1339
asVhttp://dbpedia.org/ontology/cinematography
p1340
g789
sVhttp://dbpedia.org/ontology/placeOfBurial
p1341
(lp1342
S'buried in'
p1343
aS'burial place'
p1344
aS'grave at'
p1345
aS'place of grave'
p1346
aS'tomb'
p1347
aS'place of burial'
p1348
aS'location of burial'
p1349
aS'resting place'
p1350
asVhttp://dbpedia.org/property/headquarters
p1351
(lp1352
S'headquarters'
p1353
asVhttp://dbpedia.org/ontology/cosparId
p1354
(lp1355
S'COSPAR designation'
p1356
aS'International Designator'
p1357
aS'COSPAR ID'
p1358
aS'NSSDC ID'
p1359
asVhttp://dbpedia.org/ontology/nonFictionSubject
p1360
(lp1361
S'non-fiction subject'
p1362
asVhttp://dbpedia.org/resource/Brooks_Institute
p1363
(lp1364
S'Brooks Institute'
p1365
asVhttp://dbpedia.org/resource/VueScan
p1366
(lp1367
S'VueScan'
p1368
asVhttp://dbpedia.org/property/instrument
p1369
(lp1370
S'instrument'
p1371
aS'plays'
p1372
asVhttp://dbpedia.org/resource/You've_Been_Trumped
p1373
(lp1374
S"You've Been Trumped"
p1375
asVhttp://dbpedia.org/ontology/deathDate
p1376
g1188
sVhttp://dbpedia.org/resource/Ivanka_Trump
p1377
(lp1378
S'Ivanka Trump'
p1379
asVhttp://dbpedia.org/ontology/colour
p1380
(lp1381
S'color'
p1382
aS'colour'
p1383
asVhttp://dbpedia.org/resource/N.O.V.A._3
p1384
(lp1385
S'N.O.V.A. 3'
p1386
asVhttp://dbpedia.org/resource/J._P._Dutta
p1387
(lp1388
S'J. P. Dutta'
p1389
asVhttp://dbpedia.org/resource/Samsung
p1390
(lp1391
S'Samsung'
p1392
asVhttp://dbpedia.org/resource/Bombay_Presidency
p1393
(lp1394
S'Bombay Presidency'
p1395
asVhttp://dbpedia.org/ontology/cpu
p1396
g1237
sVhttp://dbpedia.org/property/deathCause
p1397
(lp1398
S'death cause'
p1399
aS'die from'
p1400
aS'cause of death'
p1401
asVhttp://dbpedia.org/property/ceo
p1402
(lp1403
S'CEO'
p1404
aS'ceo'
p1405
aS'chief executive'
p1406
aS'chief executive officer'
p1407
asVhttp://dbpedia.org/resource/Soundtrack
p1408
(lp1409
S'Soundtrack'
p1410
asVhttp://dbpedia.org/resource/Mid_Day
p1411
(lp1412
S'Mid Day'
p1413
asVhttp://dbpedia.org/resource/Katie_Blair
p1414
(lp1415
S'Katie Blair'
p1416
asVhttp://dbpedia.org/resource/Presidencies_and_provinces_of_British_India
p1417
(lp1418
S'Presidencies and provinces of British India'
p1419
asVhttp://dbpedia.org/resource/Financial_services
p1420
(lp1421
S'Financial services'
p1422
asVhttp://dbpedia.org/resource/The_Art_of_Cricket
p1423
(lp1424
S'The Art of Cricket'
p1425
asVhttp://dbpedia.org/resource/Shah_Mehmood_Qureshi
p1426
(lp1427
S'Shah Mehmood Qureshi'
p1428
asVhttp://dbpedia.org/property/icd9
p1429
(lp1430
S'ICD-9 code'
p1431
aS'code ICD-9'
p1432
aS'ICD-9'
p1433
asVhttp://dbpedia.org/resource/Panchathan_Record_Inn_and_AM_Studios
p1434
(lp1435
S'Panchathan Record Inn and AM Studios'
p1436
asVhttp://dbpedia.org/resource/Frederic_Farrar
p1437
(lp1438
S'Frederic Farrar'
p1439
asVhttp://dbpedia.org/resource/Richard_Couch
p1440
(lp1441
S'Richard Couch'
p1442
asVhttp://dbpedia.org/property/children
p1443
(lp1444
S'children'
p1445
asVhttp://dbpedia.org/property/affiliations
p1446
(lp1447
S'affiliations'
p1448
asVhttp://dbpedia.org/ontology/manager
p1449
g470
sVhttp://dbpedia.org/property/education
p1450
(lp1451
S'school attended'
p1452
aS'studied at'
p1453
aS'graduated from'
p1454
aS'alma mater'
p1455
aS'alumnus of'
p1456
aS'alumni of'
p1457
aS'university attended'
p1458
aS'edu'
p1459
aS'alumna of'
p1460
aS'educated at'
p1461
aS'education'
p1462
aS'graduate of'
p1463
aS'college attended'
p1464
asVhttp://dbpedia.org/property/isbn
p1465
g1208
sVhttp://dbpedia.org/ontology/launchVehicle
p1466
g449
sVhttp://dbpedia.org/property/sex
p1467
g1034
sVhttp://dbpedia.org/resource/Tara_Tiny
p1468
(lp1469
S'Tara Tiny'
p1470
asVhttp://dbpedia.org/ontology/education
p1471
g1451
sVhttp://dbpedia.org/property/products
p1472
(lp1473
S'products'
p1474
asVhttp://dbpedia.org/ontology/continent
p1475
(lp1476
S'continent'
p1477
asVhttp://dbpedia.org/ontology/absoluteMagnitude
p1478
(lp1479
S'absolute magnitude'
p1480
asVhttp://dbpedia.org/property/owner
p1481
(lp1482
S'belongs to'
p1483
aS'is owned by'
p1484
aS'owned by'
p1485
aS'shareholder'
p1486
aS'stockholder'
p1487
aS'owner'
p1488
asVhttp://dbpedia.org/resource/Privately_held_company
p1489
(lp1490
S'Privately held company'
p1491
asVhttp://dbpedia.org/property/icaoLocationIdentifier
p1492
(lp1493
S'ICAO airport code'
p1494
aS'International Civil Aviation Organization airport code'
p1495
aS'ICAO aerodrome code'
p1496
aS'ICAO airfield code'
p1497
asVhttp://dbpedia.org/resource/Through_the_Looking_Glass_(video_game)
p1498
(lp1499
S'Through the Looking Glass (video game)'
p1500
asVhttp://dbpedia.org/property/ideology
p1501
g827
sVhttp://dbpedia.org/property/diseasesDb
p1502
(lp1503
S'DiseasesDB'
p1504
asVhttp://dbpedia.org/ontology/foundedBy
p1505
(lp1506
S'founded by'
p1507
asVhttp://dbpedia.org/resource/Beats_Music
p1508
(lp1509
S'Beats Music'
p1510
asVhttp://dbpedia.org/resource/Karnataka
p1511
(lp1512
S'Karnataka'
p1513
asVhttp://dbpedia.org/resource/Islam
p1514
(lp1515
S'Islam'
p1516
asVhttp://dbpedia.org/resource/Moothedath_Panjan_Ramachandran
p1517
(lp1518
S'Moothedath Panjan Ramachandran'
p1519
asVhttp://dbpedia.org/property/recordLabel
p1520
(lp1521
S'record label'
p1522
aS'label'
p1523
asVhttp://dbpedia.org/ontology/ethnicity
p1524
(lp1525
S'race'
p1526
aS'ethnic group'
p1527
aS'ethnicity'
p1528
asVhttp://dbpedia.org/resource/Ashok_Mankad
p1529
(lp1530
S'Ashok Mankad'
p1531
asVhttp://dbpedia.org/property/party
p1532
(lp1533
S'member of political party'
p1534
aS'political party'
p1535
aS'party'
p1536
asVhttp://dbpedia.org/resource/Brihanmumbai_Municipal_Corporation
p1537
(lp1538
S'Brihanmumbai Municipal Corporation'
p1539
asVhttp://dbpedia.org/resource/Malang_(song)
p1540
(lp1541
S'Malang (song)'
p1542
asVhttp://dbpedia.org/ontology/iso6391Code
p1543
(lp1544
S'ISO 639-1 code'
p1545
aS'ISO639-1'
p1546
aS'iso 639-1'
p1547
aS'iso639-1'
p1548
asVhttp://dbpedia.org/resource/Girls_on_Top_(2016_TV_series)
p1549
(lp1550
S'Girls on Top (2016 TV series)'
p1551
asVhttp://dbpedia.org/resource/Kushner_Companies
p1552
(lp1553
S'Kushner Companies'
p1554
asVhttp://dbpedia.org/resource/Atul_Kasbekar
p1555
(lp1556
S'Atul Kasbekar'
p1557
asVhttp://dbpedia.org/resource/German_Empire
p1558
(lp1559
S'German Empire'
p1560
asVhttp://dbpedia.org/property/locationCity
p1561
(lp1562
S'location city'
p1563
asVhttp://dbpedia.org/resource/The_Apprentice_Asia
p1564
(lp1565
S'The Apprentice Asia'
p1566
asVhttp://dbpedia.org/property/iso6392Code
p1567
(lp1568
S'ISO 639-2 code'
p1569
aS'ISO639-2'
p1570
aS'iso639-2'
p1571
aS'iso 639-2'
p1572
asVhttp://dbpedia.org/property/director
p1573
(lp1574
S'director'
p1575
aS'movie director'
p1576
aS'film director'
p1577
aS'directed by'
p1578
asVhttp://dbpedia.org/resource/Jatin_Kanakia
p1579
(lp1580
S'Jatin Kanakia'
p1581
asVhttp://dbpedia.org/resource/Datang_Telecom
p1582
(lp1583
S'Datang Telecom'
p1584
asVhttp://dbpedia.org/resource/Steam_(software)
p1585
(lp1586
S'Steam (software)'
p1587
asVhttp://dbpedia.org/property/ground
p1588
(lp1589
S'ground'
p1590
asVhttp://dbpedia.org/resource/Gujarat
p1591
(lp1592
S'Gujarat'
p1593
asVhttp://dbpedia.org/ontology/bSide
p1594
(lp1595
S'b-side'
p1596
asVhttp://dbpedia.org/resource/Echelon_Corporation
p1597
(lp1598
S'Echelon Corporation'
p1599
asVhttp://dbpedia.org/resource/English_language
p1600
(lp1601
S'English language'
p1602
asVhttp://dbpedia.org/resource/Anuradha_Pal
p1603
(lp1604
S'Anuradha Pal'
p1605
asVhttp://dbpedia.org/resource/APF_Club
p1606
(lp1607
S'APF Club'
p1608
asVhttp://dbpedia.org/resource/Oscar_Health
p1609
(lp1610
S'Oscar Health'
p1611
asVhttp://dbpedia.org/resource/Rani_Chatterjee
p1612
(lp1613
S'Rani Chatterjee'
p1614
asVhttp://dbpedia.org/resource/ThunderCats
p1615
(lp1616
S'ThunderCats'
p1617
asVhttp://dbpedia.org/property/team
p1618
g730
sVhttp://dbpedia.org/ontology/director
p1619
g1574
sVhttp://dbpedia.org/resource/Sudha_Productions
p1620
(lp1621
S'Sudha Productions'
p1622
asVhttp://dbpedia.org/resource/Software_development_kit
p1623
(lp1624
S'Software development kit'
p1625
asVhttp://dbpedia.org/resource/Investing_online
p1626
(lp1627
S'Investing online'
p1628
asVhttp://dbpedia.org/ontology/product
p1629
(lp1630
S'product'
p1631
asVhttp://dbpedia.org/ontology/Scientist
p1632
(lp1633
S'scientist'
p1634
asVhttp://dbpedia.org/resource/Software_synthesizer
p1635
(lp1636
S'Software synthesizer'
p1637
asVhttp://dbpedia.org/resource/City_Engineering_College
p1638
(lp1639
S'City Engineering College'
p1640
asVhttp://dbpedia.org/ontology/league
p1641
(lp1642
S'league'
p1643
aS'sports league'
p1644
aS'division'
p1645
asVhttp://dbpedia.org/resource/Joshua_Kushner
p1646
(lp1647
S'Joshua Kushner'
p1648
asVhttp://dbpedia.org/ontology/computingPlatform
p1649
g240
sVhttp://dbpedia.org/resource/J._R._D._Tata
p1650
(lp1651
S'J. R. D. Tata'
p1652
asVhttp://dbpedia.org/ontology/programmingLanguage
p1653
(lp1654
S'programming language'
p1655
asVhttp://dbpedia.org/resource/IPod_Touch
p1656
(lp1657
S'IPod Touch'
p1658
asVhttp://dbpedia.org/resource/Maharashtra
p1659
(lp1660
S'Maharashtra'
p1661
asVhttp://dbpedia.org/resource/Ralph_Sam_Haeems
p1662
(lp1663
S'Ralph Sam Haeems'
p1664
asVhttp://dbpedia.org/ontology/constructionMaterial
p1665
(lp1666
S'crafted from'
p1667
aS'source material'
p1668
aS'made of'
p1669
aS'manufactured out of'
p1670
aS'feedstock'
p1671
aS'reactant'
p1672
aS'material used'
p1673
aS'media'
p1674
aS'crafted out of'
p1675
aS'contains'
p1676
aS'ingredient'
p1677
aS'medium'
p1678
aS'ore'
p1679
aS'manufactured from'
p1680
aS'raw material'
p1681
aS'constructed out of'
p1682
aS'made from'
p1683
aS'built from'
p1684
aS'formed from'
p1685
aS'formed out of'
p1686
aS'built out of'
p1687
aS'constructed from'
p1688
aS'construction material'
p1689
asVhttp://dbpedia.org/property/location
p1690
(lp1691
S'Location'
p1692
asVhttp://dbpedia.org/resource/Varanasi
p1693
(lp1694
S'Varanasi'
p1695
asVhttp://dbpedia.org/resource/Washington,_D.C.
p1696
(lp1697
S'Washington, D.C.'
p1698
asVhttp://dbpedia.org/resource/Sony
p1699
(lp1700
S'Sony'
p1701
asVhttp://dbpedia.org/resource/Research
p1702
(lp1703
S'Research'
p1704
asVhttp://dbpedia.org/resource/Bo_Derek
p1705
(lp1706
S'Bo Derek'
p1707
asVhttp://dbpedia.org/resource/Cambridge,_Massachusetts
p1708
(lp1709
S'Cambridge, Massachusetts'
p1710
asVhttp://dbpedia.org/resource/D23_(Disney)
p1711
(lp1712
S'D23 (Disney)'
p1713
asVhttp://dbpedia.org/resource/B._R._Ishara
p1714
(lp1715
S'B. R. Ishara'
p1716
asVhttp://dbpedia.org/resource/Apple_GS/OS
p1717
(lp1718
S'Apple GS/OS'
p1719
asVhttp://dbpedia.org/property/currencyCode
p1720
(lp1721
S'ISO 4217 code'
p1722
asVhttp://dbpedia.org/resource/National_Film_Award_for_Best_Screenplay
p1723
(lp1724
S'National Film Award for Best Screenplay'
p1725
asVhttp://dbpedia.org/property/basedOn
p1726
(lp1727
S'fork of'
p1728
aS'extended from'
p1729
aS'derived from'
p1730
aS'based upon'
p1731
aS'based on'
p1732
aS'copy of'
p1733
aS'adapted from'
p1734
asVhttp://dbpedia.org/ontology/timeZone
p1735
(lp1736
S'time zone'
p1737
asVhttp://dbpedia.org/ontology/editing
p1738
g645
sVhttp://dbpedia.org/property/originalLanguage
p1739
g1231
sVhttp://dbpedia.org/resource/Tuna
p1740
(lp1741
S'Tuna'
p1742
asVhttp://dbpedia.org/ontology/inflow
p1743
g1247
sVhttp://dbpedia.org/property/date
p1744
g493
sVhttp://dbpedia.org/resource/Donald_Trump
p1745
(lp1746
S'Donald Trump'
p1747
asVhttp://dbpedia.org/resource/Anand_Singh
p1748
(lp1749
S'Anand Singh'
p1750
asVhttp://dbpedia.org/property/meshId
p1751
(lp1752
S'MeSH ID'
p1753
aS'MeSH Unique ID'
p1754
asVhttp://dbpedia.org/resource/Apple_Pro_Mouse
p1755
(lp1756
S'Apple Pro Mouse'
p1757
asVhttp://dbpedia.org/property/doctoralAdvisor
p1758
(lp1759
S'PhD advisor'
p1760
aS'doctoral advisor'
p1761
aS'doctoral supervisor'
p1762
aS'supervisor'
p1763
aS'advisor'
p1764
asVhttp://dbpedia.org/resource/President
p1765
(lp1766
S'President'
p1767
asVhttp://dbpedia.org/ontology/recordLabel
p1768
g1521
sVhttp://dbpedia.org/resource/Patty_Shwartz
p1769
(lp1770
S'Patty Shwartz'
p1771
asVhttp://dbpedia.org/resource/First-person_shooter
p1772
(lp1773
S'First-person shooter'
p1774
asVhttp://dbpedia.org/property/presenter
p1775
(lp1776
S'presenter'
p1777
asVhttp://dbpedia.org/ontology/icd10
p1778
(lp1779
S'ICD-10'
p1780
aS'ICD 10'
p1781
asVhttp://dbpedia.org/resource/Omarosa
p1782
(lp1783
S'Omarosa'
p1784
asVhttp://dbpedia.org/property/continent
p1785
g1476
sVhttp://dbpedia.org/resource/AXN_(Asia)
p1786
(lp1787
S'AXN (Asia)'
p1788
asVhttp://dbpedia.org/resource/Crippled_America
p1789
(lp1790
S'Crippled America'
p1791
asVhttp://dbpedia.org/property/city
p1792
(lp1793
S'city '
p1794
asVhttp://dbpedia.org/resource/Macworld
p1795
(lp1796
S'Macworld'
p1797
asVhttp://dbpedia.org/property/editor
p1798
(lp1799
S'edited by'
p1800
aS'compiled by'
p1801
aS'editor'
p1802
aS'compiler'
p1803
asVhttp://dbpedia.org/resource/Indian_people
p1804
(lp1805
S'Indian people'
p1806
asVhttp://dbpedia.org/resource/Jay_Van_Andel
p1807
(lp1808
S'Jay Van Andel'
p1809
asVhttp://dbpedia.org/resource/C_(programming_language)
p1810
(lp1811
S'C (programming language)'
p1812
asVhttp://dbpedia.org/resource/Lifestreaming
p1813
(lp1814
S'Lifestreaming'
p1815
asVhttp://dbpedia.org/ontology/ceo
p1816
g1403
sVhttp://dbpedia.org/resource/Daniel_W._Dobberpuhl
p1817
(lp1818
S'Daniel W. Dobberpuhl'
p1819
asVhttp://dbpedia.org/property/taoiseach
p1820
(lp1821
S'head of government'
p1822
aS'executive power heading by'
p1823
aS'president'
p1824
aS'premier'
p1825
aS'chancellor'
p1826
aS'government heading by'
p1827
aS'prime minister'
p1828
aS'head of national government'
p1829
aS'first minister'
p1830
aS'mayor'
p1831
asVhttp://dbpedia.org/ontology/unloCode
p1832
(lp1833
S'United Nations LOCODE'
p1834
aS'UN/LOCODE'
p1835
aS'UN location code'
p1836
aS'LOCCODE'
p1837
aS'UNECE location code'
p1838
aS'UNECE LOCODE'
p1839
aS'LOCODE'
p1840
aS'United Nations location code'
p1841
asVhttp://dbpedia.org/resource/Gita_Sahgal
p1842
(lp1843
S'Gita Sahgal'
p1844
asVhttp://dbpedia.org/ontology/designer
p1845
g345
sVhttp://dbpedia.org/property/birthPlace
p1846
g662
sVhttp://dbpedia.org/property/imdbId
p1847
g571
sVhttp://dbpedia.org/resource/Le_Cirque:_A_Table_in_Heaven
p1848
(lp1849
S'Le Cirque: A Table in Heaven'
p1850
asVhttp://dbpedia.org/resource/William_Randolph_Hearst
p1851
(lp1852
S'William Randolph Hearst'
p1853
asVhttp://dbpedia.org/ontology/alias
p1854
(lp1855
S'alias'
p1856
aS'stage name'
p1857
aS'pen name'
p1858
aS'nom-de-plume'
p1859
aS'pseudonym'
p1860
asVhttp://dbpedia.org/ontology/VideoGame
p1861
(lp1862
S'video game'
p1863
asVhttp://dbpedia.org/property/handedness
p1864
(lp1865
S'handedness'
p1866
asVhttp://dbpedia.org/ontology/pdb
p1867
(lp1868
S'PDB ID'
p1869
asVhttp://dbpedia.org/ontology/nlaId
p1870
(lp1871
S'AuCNLKIN'
p1872
aS'AuCNLKIN ID'
p1873
aS'NLA (Australia) identifier'
p1874
aS'NLA Kinetica Service identifier'
p1875
aS'NLA (Australia) ID'
p1876
aS'Libraries Australia identifier'
p1877
aS'CNLKIN'
p1878
aS'CNL Kinetica Service identifier'
p1879
aS'AuCNLKIN identifier'
p1880
aS'Australian National Bibliographic Database identifier'
p1881
aS'CNLKIN identifier'
p1882
asVhttp://dbpedia.org/resource/Dattaram_Hindlekar
p1883
(lp1884
S'Dattaram Hindlekar'
p1885
asVhttp://dbpedia.org/resource/Spencer_Kimball_(computer_programmer)
p1886
(lp1887
S'Spencer Kimball (computer programmer)'
p1888
asVhttp://dbpedia.org/resource/Bandhan_(Indian_TV_series)
p1889
(lp1890
S'Bandhan (Indian TV series)'
p1891
asVhttp://dbpedia.org/ontology/Stadium
p1892
(lp1893
S'stadium'
p1894
asVhttp://dbpedia.org/resource/Television_program
p1895
(lp1896
S'Television program'
p1897
asVhttp://dbpedia.org/resource/Adobe_Systems
p1898
(lp1899
S'Adobe Systems'
p1900
asVhttp://dbpedia.org/ontology/School
p1901
(lp1902
S'school'
p1903
asVhttp://dbpedia.org/property/developer
p1904
(lp1905
S'developed by'
p1906
aS'developer'
p1907
asVhttp://dbpedia.org/resource/OS_X
p1908
(lp1909
S'OS X'
p1910
asVhttp://dbpedia.org/ontology/orientation
p1911
(lp1912
S'sexual orientation'
p1913
asVhttp://dbpedia.org/property/diocese
p1914
g197
sVhttp://dbpedia.org/property/cosparId
p1915
g1355
sVhttp://dbpedia.org/property/colour
p1916
g1381
sVhttp://dbpedia.org/resource/Harvard_College
p1917
(lp1918
S'Harvard College'
p1919
asVhttp://dbpedia.org/ontology/location
p1920
(lp1921
S'location'
p1922
asVhttp://dbpedia.org/resource/The_Ultimate_Merger
p1923
(lp1924
S'The Ultimate Merger'
p1925
asVhttp://dbpedia.org/resource/Android_(operating_system)
p1926
(lp1927
S'Android (operating system)'
p1928
asVhttp://dbpedia.org/resource/Sunny_Deol
p1929
(lp1930
S'Sunny Deol'
p1931
asVhttp://dbpedia.org/ontology/chairman
p1932
(lp1933
S'chairman'
p1934
asVhttp://dbpedia.org/ontology/hometown
p1935
(lp1936
S'home town'
p1937
asVhttp://dbpedia.org/resource/Santa_Clara,_California
p1938
(lp1939
S'Santa Clara, California'
p1940
asVhttp://dbpedia.org/resource/AXN
p1941
(lp1942
S'AXN'
p1943
asVhttp://dbpedia.org/ontology/meshId
p1944
g1752
sVhttp://dbpedia.org/ontology/isniId
p1945
g719
sVhttp://dbpedia.org/resource/Wycombe_House_Sports_and_Social_Club
p1946
(lp1947
S'Wycombe House Sports and Social Club'
p1948
asVhttp://dbpedia.org/ontology/Company
p1949
(lp1950
S'company'
p1951
asVhttp://dbpedia.org/ontology/discovered
p1952
(lp1953
S'discovery date'
p1954
aS'date discovered'
p1955
aS'date of discovery'
p1956
aS'time of discovery'
p1957
asVhttp://dbpedia.org/resource/Ghosts_Can't_Do_It
p1958
(lp1959
S"Ghosts Can't Do It"
p1960
asVhttp://dbpedia.org/property/selibrId
p1961
(lp1962
S'LIBRIS'
p1963
aS'SELIBR'
p1964
asVhttp://dbpedia.org/resource/Wade_Nichols
p1965
(lp1966
S'Wade Nichols'
p1967
asVhttp://dbpedia.org/resource/SOAS,_University_of_London
p1968
(lp1969
S'SOAS, University of London'
p1970
asVhttp://dbpedia.org/ontology/knownFor
p1971
(lp1972
S'known for'
p1973
asVhttp://dbpedia.org/resource/William_Randolph_Hearst_III
p1974
(lp1975
S'William Randolph Hearst III'
p1976
asVhttp://dbpedia.org/resource/Madhya_Pradesh
p1977
(lp1978
S'Madhya Pradesh'
p1979
asVhttp://dbpedia.org/ontology/taoiseach
p1980
g1821
sVhttp://dbpedia.org/resource/Sarhad_(film)
p1981
(lp1982
S'Sarhad (film)'
p1983
asVhttp://dbpedia.org/resource/Memory
p1984
(lp1985
S'Memory'
p1986
asVhttp://dbpedia.org/ontology/discoverer
p1987
(lp1988
S'discoverer or inventor'
p1989
aS'discoverer'
p1990
aS'invented by'
p1991
aS'discovered by'
p1992
aS'first described by'
p1993
aS'coined by'
p1994
aS'inventor'
p1995
asVhttp://dbpedia.org/property/nlaId
p1996
g1871
sVhttp://dbpedia.org/resource/Ahmednagar
p1997
(lp1998
S'Ahmednagar'
p1999
asVhttp://dbpedia.org/property/gameEngine
p2000
g48
sVhttp://dbpedia.org/resource/Blast_Monkeys
p2001
(lp2002
S'Blast Monkeys'
p2003
asVhttp://dbpedia.org/ontology/musicBy
p2004
g923
sVhttp://dbpedia.org/resource/Joel_M._Podolny
p2005
(lp2006
S'Joel M. Podolny'
p2007
asVhttp://dbpedia.org/resource/Russia
p2008
(lp2009
S'Russia'
p2010
asVhttp://dbpedia.org/ontology/country
p2011
(lp2012
S'country'
p2013
aS'state'
p2014
aS'land'
p2015
aS'sovereign state'
p2016
aS'nation'
p2017
asVhttp://dbpedia.org/property/region
p2018
(lp2019
S'region'
p2020
asVhttp://dbpedia.org/resource/Mainstage_(software)
p2021
(lp2022
S'Mainstage (software)'
p2023
asVhttp://dbpedia.org/property/discipline
p2024
(lp2025
S'discipline'
p2026
aS'scientific area'
p2027
aS'domain'
p2028
aS'field of study'
p2029
aS'area'
p2030
aS'academic subject'
p2031
aS'field of work'
p2032
aS'academic area'
p2033
aS'fields'
p2034
aS'specialism'
p2035
aS'academic discipline'
p2036
aS'scientific discipline'
p2037
aS'subject'
p2038
asVhttp://dbpedia.org/resource/5th_Cell
p2039
(lp2040
S'5th Cell'
p2041
asVhttp://dbpedia.org/resource/South_Korea
p2042
(lp2043
S'South Korea'
p2044
asVhttp://dbpedia.org/resource/Sachin:_A_Hundred_Hundreds_Now
p2045
(lp2046
S'Sachin: A Hundred Hundreds Now'
p2047
asVhttp://dbpedia.org/resource/Mittal_Champions_Trust
p2048
(lp2049
S'Mittal Champions Trust'
p2050
asVhttp://dbpedia.org/property/governingBody
p2051
(lp2052
S'governing body'
p2053
asVhttp://dbpedia.org/ontology/writer
p2054
(lp2055
S'writer'
p2056
asVhttp://dbpedia.org/resource/Canada
p2057
(lp2058
S'Canada'
p2059
asVhttp://dbpedia.org/ontology/format
p2060
(lp2061
S'format (object)'
p2062
asVhttp://dbpedia.org/resource/Mahesh_Bhupathi
p2063
(lp2064
S'Mahesh Bhupathi'
p2065
asVhttp://dbpedia.org/resource/National_Hockey_League
p2066
(lp2067
S'National Hockey League'
p2068
asVhttp://dbpedia.org/ontology/discipline
p2069
g2025
sVhttp://dbpedia.org/resource/The_O'Jays
p2070
(lp2071
S"The O'Jays"
p2072
asVhttp://dbpedia.org/ontology/atomicNumber
p2073
g397
sVhttp://dbpedia.org/ontology/party
p2074
g1533
sVhttp://dbpedia.org/resource/Maryanne_Trump_Barry
p2075
(lp2076
S'Maryanne Trump Barry'
p2077
asVhttp://dbpedia.org/resource/John_Hinton_(rugby_player)
p2078
(lp2079
S'John Hinton (rugby player)'
p2080
asVhttp://dbpedia.org/ontology/Film
p2081
(lp2082
S'movie'
p2083
asVhttp://dbpedia.org/resource/Pakistan
p2084
(lp2085
S'Pakistan'
p2086
asVhttp://dbpedia.org/resource/Manzilein_Aur_Bhi_Hain
p2087
(lp2088
S'Manzilein Aur Bhi Hain'
p2089
asVhttp://dbpedia.org/property/profession
p2090
(lp2091
S'profession'
p2092
asVhttp://dbpedia.org/resource/British_rule_in_Burma
p2093
(lp2094
S'British rule in Burma'
p2095
asVhttp://dbpedia.org/ontology/parentCompany
p2096
(lp2097
S'parent company'
p2098
asVhttp://dbpedia.org/property/absoluteMagnitude
p2099
g1479
sVhttp://dbpedia.org/property/purpose
p2100
(lp2101
S'purpose'
p2102
asVhttp://dbpedia.org/property/isil
p2103
g1270
sVhttp://dbpedia.org/property/architect
p2104
(lp2105
S'architect'
p2106
asVhttp://dbpedia.org/ontology/nisCode
p2107
(lp2108
S'NIS/INS code'
p2109
asVhttp://dbpedia.org/property/isPartOf
p2110
g124
sVhttp://dbpedia.org/resource/Chitralekha_(1941_film)
p2111
(lp2112
S'Chitralekha (1941 film)'
p2113
asVhttp://dbpedia.org/ontology/MemberOfParliament
p2114
(lp2115
S'member of parliament'
p2116
asVhttp://dbpedia.org/resource/Goregaon
p2117
(lp2118
S'Goregaon'
p2119
asVhttp://dbpedia.org/resource/Trump_Entertainment_Resorts
p2120
(lp2121
S'Trump Entertainment Resorts'
p2122
asVhttp://dbpedia.org/resource/Badminton
p2123
(lp2124
S'Badminton'
p2125
asVhttp://dbpedia.org/ontology/iso6393Code
p2126
g535
sVhttp://dbpedia.org/property/startDate
p2127
(lp2128
S'from'
p2129
aS'introduction'
p2130
aS'starting'
p2131
aS'began'
p2132
aS'since'
p2133
aS'start time'
p2134
aS'from date'
p2135
aS'starttime'
p2136
aS'building date'
p2137
aS'from time'
p2138
aS'introduced'
p2139
aS'beginning'
p2140
aS'start date'
p2141
asVhttp://dbpedia.org/ontology/father
p2142
(lp2143
S'dad'
p2144
aS'parent'
p2145
aS'has father'
p2146
aS'papa'
p2147
aS'man, the parent of that person'
p2148
aS'father'
p2149
aS'is child of'
p2150
aS'is daughter of'
p2151
aS'daddy'
p2152
aS'is son of'
p2153
asVhttp://dbpedia.org/ontology/currencyCode
p2154
g1721
sVhttp://dbpedia.org/ontology/istat
p2155
(lp2156
S'ISTAT ID'
p2157
asVhttp://dbpedia.org/resource/Nitish_Kumar
p2158
(lp2159
S'Nitish Kumar'
p2160
asVhttp://dbpedia.org/resource/My_Big_Fat_Obnoxious_Boss
p2161
(lp2162
S'My Big Fat Obnoxious Boss'
p2163
asVhttp://dbpedia.org/property/producer
p2164
(lp2165
S'producer'
p2166
asVhttp://dbpedia.org/resource/Sushilfinance
p2167
(lp2168
S'Sushilfinance'
p2169
asVhttp://dbpedia.org/resource/Isaac_Butt
p2170
(lp2171
S'Isaac Butt'
p2172
asVhttp://dbpedia.org/ontology/currency
p2173
g1173
sVhttp://dbpedia.org/resource/The_Trump_Organization
p2174
(lp2175
S'The Trump Organization'
p2176
asVhttp://dbpedia.org/ontology/generalManager
p2177
g141
sVhttp://dbpedia.org/resource/Advanced_Micro_Devices
p2178
(lp2179
S'Advanced Micro Devices'
p2180
asVhttp://dbpedia.org/resource/The_Institute_of_Science,_Mumbai
p2181
(lp2182
S'The Institute of Science, Mumbai'
p2183
asVhttp://dbpedia.org/resource/Commercial_Bank_of_India
p2184
(lp2185
S'Commercial Bank of India'
p2186
asVhttp://dbpedia.org/resource/Lahore
p2187
(lp2188
S'Lahore'
p2189
asVhttp://dbpedia.org/ontology/distributor
p2190
g1266
sVhttp://dbpedia.org/resource/P.A._Semi
p2191
(lp2192
S'P.A. Semi'
p2193
asVhttp://dbpedia.org/resource/Jackie_Shroff
p2194
(lp2195
S'Jackie Shroff'
p2196
asVhttp://dbpedia.org/resource/Ashwini_Kumar_Chopra
p2197
(lp2198
S'Ashwini Kumar Chopra'
p2199
asVhttp://dbpedia.org/resource/Robert_McCool
p2200
(lp2201
S'Robert McCool'
p2202
asVhttp://dbpedia.org/resource/Pranay_Chulet
p2203
(lp2204
S'Pranay Chulet'
p2205
asVhttp://dbpedia.org/ontology/constellation
p2206
(lp2207
S'constellation'
p2208
asVhttp://dbpedia.org/resource/Geometry_Wars:_Touch
p2209
(lp2210
S'Geometry Wars: Touch'
p2211
asVhttp://dbpedia.org/ontology/sisterStation
p2212
(lp2213
S'sister station'
p2214
asVhttp://dbpedia.org/property/capital
p2215
g551
sVhttp://dbpedia.org/resource/M.E._Pavri
p2216
(lp2217
S'M.E. Pavri'
p2218
asVhttp://dbpedia.org/ontology/startDate
p2219
g2128
sVhttp://dbpedia.org/resource/Trump:_The_Art_of_the_Deal
p2220
(lp2221
S'Trump: The Art of the Deal'
p2222
asVhttp://dbpedia.org/ontology/settlement
p2223
g54
sVhttp://dbpedia.org/property/elo
p2224
g962
sVhttp://dbpedia.org/property/nisCode
p2225
g2108
sVhttp://dbpedia.org/resource/Kathmandu
p2226
(lp2227
S'Kathmandu'
p2228
asVhttp://dbpedia.org/ontology/killedBy
p2229
g258
sVhttp://dbpedia.org/property/namedAfter
p2230
g271
sVhttp://dbpedia.org/ontology/routeJunction
p2231
(lp2232
S'route junction'
p2233
asVhttp://dbpedia.org/ontology/basedOn
p2234
g1727
sVhttp://dbpedia.org/resource/States_and_union_territories_of_India
p2235
(lp2236
S'States and union territories of India'
p2237
asVhttp://dbpedia.org/resource/Handheld_PC
p2238
(lp2239
S'Handheld PC'
p2240
asVhttp://dbpedia.org/resource/Harsha_Bhogle
p2241
(lp2242
S'Harsha Bhogle'
p2243
asVhttp://dbpedia.org/resource/Vivek_Vaswani
p2244
(lp2245
S'Vivek Vaswani'
p2246
asVhttp://dbpedia.org/resource/Computer_mouse
p2247
(lp2248
S'Computer mouse'
p2249
asVhttp://dbpedia.org/resource/IWork
p2250
(lp2251
S'IWork'
p2252
asVhttp://dbpedia.org/resource/United_States
p2253
(lp2254
S'United States'
p2255
asVhttp://dbpedia.org/resource/University_of_Southern_California
p2256
(lp2257
S'University of Southern California'
p2258
asVhttp://dbpedia.org/resource/Nicole_Amy_Madell
p2259
(lp2260
S'Nicole Amy Madell'
p2261
asVhttp://dbpedia.org/ontology/areaCode
p2262
g1068
sVhttp://dbpedia.org/resource/Anthony_Quinn
p2263
(lp2264
S'Anthony Quinn'
p2265
asVhttp://dbpedia.org/ontology/relation
p2266
(lp2267
S'relation'
p2268
asVhttp://dbpedia.org/resource/Steven_W._Bailey
p2269
(lp2270
S'Steven W. Bailey'
p2271
asVhttp://dbpedia.org/resource/Hindustan_Ki_Kasam_(1999_film)
p2272
(lp2273
S'Hindustan Ki Kasam (1999 film)'
p2274
asVhttp://dbpedia.org/ontology/homeport
p2275
g1282
sVhttp://dbpedia.org/ontology/icd9
p2276
g1430
sVhttp://dbpedia.org/resource/Bhabha_Hospital
p2277
(lp2278
S'Bhabha Hospital'
p2279
asVhttp://dbpedia.org/resource/Risca
p2280
(lp2281
S'Risca'
p2282
asVhttp://dbpedia.org/resource/Turkey
p2283
(lp2284
S'Turkey'
p2285
asVhttp://dbpedia.org/ontology/starring
p2286
(lp2287
S'starring'
p2288
aS'cast member'
p2289
aS'actress'
p2290
aS'actor'
p2291
aS'film starring'
p2292
asVhttp://dbpedia.org/ontology/executiveProducer
p2293
(lp2294
S'executive producer'
p2295
asVhttp://dbpedia.org/property/country
p2296
g2012
sVhttp://dbpedia.org/property/campus
p2297
(lp2298
S'campus'
p2299
asVhttp://dbpedia.org/property/founder
p2300
(lp2301
S'founder'
p2302
aS'is founded by'
p2303
aS'founded'
p2304
aS'founded by'
p2305
aS'founders'
p2306
aS'co-founder'
p2307
asVhttp://dbpedia.org/resource/OmniDiskSweeper
p2308
(lp2309
S'OmniDiskSweeper'
p2310
asVhttp://dbpedia.org/resource/Anjan_Bista
p2311
(lp2312
S'Anjan Bista'
p2313
asVhttp://dbpedia.org/resource/Brian_Stelter
p2314
(lp2315
S'Brian Stelter'
p2316
asVhttp://dbpedia.org/property/programmingLanguage
p2317
(lp2318
S'programming language'
p2319
asVhttp://dbpedia.org/resource/Barbara_Bestor
p2320
(lp2321
S'Barbara Bestor'
p2322
asVhttp://dbpedia.org/property/bibsysId
p2323
g995
sVhttp://dbpedia.org/resource/B4U_Movies
p2324
(lp2325
S'B4U Movies'
p2326
asVhttp://dbpedia.org/ontology/award
p2327
g886
sVhttp://dbpedia.org/ontology/address
p2328
g902
sVhttp://dbpedia.org/resource/Hindustani_classical_music
p2329
(lp2330
S'Hindustani classical music'
p2331
asVhttp://dbpedia.org/resource/Chinese_language
p2332
(lp2333
S'Chinese language'
p2334
asVhttp://dbpedia.org/resource/Amruta_Khanvilkar
p2335
(lp2336
S'Amruta Khanvilkar'
p2337
asVhttp://dbpedia.org/resource/California
p2338
(lp2339
S'California'
p2340
asVhttp://dbpedia.org/resource/PowerBook_Duo
p2341
(lp2342
S'PowerBook Duo'
p2343
asVhttp://dbpedia.org/resource/Microsoft
p2344
(lp2345
S'Microsoft'
p2346
asVhttp://dbpedia.org/resource/Marine_Lines
p2347
(lp2348
S'Marine Lines'
p2349
asVhttp://dbpedia.org/resource/Fred_Trump
p2350
(lp2351
S'Fred Trump'
p2352
asVhttp://dbpedia.org/ontology/Settlement
p2353
(lp2354
S'settlement'
p2355
asVhttp://dbpedia.org/ontology/battle
p2356
g160
sVhttp://dbpedia.org/ontology/keyPerson
p2357
(lp2358
S'key person'
p2359
asVhttp://dbpedia.org/ontology/architect
p2360
g2105
sVhttp://dbpedia.org/ontology/icaoLocationIdentifier
p2361
g1493
sVhttp://dbpedia.org/resource/Run_Roo_Run
p2362
(lp2363
S'Run Roo Run'
p2364
asVhttp://dbpedia.org/resource/Shalmalee_Desai
p2365
(lp2366
S'Shalmalee Desai'
p2367
asVhttp://dbpedia.org/resource/Microsoft_Studios
p2368
(lp2369
S'Microsoft Studios'
p2370
asVhttp://dbpedia.org/ontology/child
p2371
g941
sVhttp://dbpedia.org/resource/Bandra
p2372
(lp2373
S'Bandra'
p2374
asVhttp://dbpedia.org/resource/Survival_game
p2375
(lp2376
S'Survival game'
p2377
asVhttp://dbpedia.org/property/subject
p2378
(lp2379
S'subject'
p2380
asVhttp://dbpedia.org/ontology/editor
p2381
g1799
sVhttp://dbpedia.org/property/eyeColor
p2382
(lp2383
S'eyecolor'
p2384
aS'eye color'
p2385
aS'eyecolour'
p2386
aS'eye colour'
p2387
asVhttp://dbpedia.org/ontology/orcidId
p2388
(lp2389
S'ORCID iD'
p2390
aS'ORCID'
p2391
aS'ORC ID'
p2392
aS'Open Research Contributor ID'
p2393
asVhttp://dbpedia.org/resource/Ivana_Trump
p2394
(lp2395
S'Ivana Trump'
p2396
asVhttp://dbpedia.org/resource/Kshatriya_(film)
p2397
(lp2398
S'Kshatriya (film)'
p2399
asVhttp://dbpedia.org/property/manufacturer
p2400
g1298
sVhttp://dbpedia.org/property/state
p2401
(lp2402
S'state'
p2403
asVhttp://dbpedia.org/ontology/voice
p2404
(lp2405
S'voice'
p2406
asVhttp://dbpedia.org/property/deathPlace
p2407
(lp2408
S'died in'
p2409
aS'death location'
p2410
aS'deathplace'
p2411
aS'death place'
p2412
aS'POD'
p2413
aS'place of death'
p2414
aS'location of death'
p2415
asVhttp://dbpedia.org/resource/MediaCityUK
p2416
(lp2417
S'MediaCityUK'
p2418
asVhttp://dbpedia.org/resource/David_Campbell_Bannerman
p2419
(lp2420
S'David Campbell Bannerman'
p2421
asVhttp://dbpedia.org/resource/John_Derek
p2422
(lp2423
S'John Derek'
p2424
asVhttp://dbpedia.org/property/album
p2425
(lp2426
S'Album'
p2427
asVhttp://dbpedia.org/property/foundation
p2428
(lp2429
S'foundation'
p2430
asVhttp://dbpedia.org/resource/IPod_Touch_(5th_generation)
p2431
(lp2432
S'IPod Touch (5th generation)'
p2433
asVhttp://dbpedia.org/resource/Wentworth_North_(provincial_electoral_district)
p2434
(lp2435
S'Wentworth North (provincial electoral district)'
p2436
asVhttp://dbpedia.org/resource/OpenLife_Grid
p2437
(lp2438
S'OpenLife Grid'
p2439
asVhttp://dbpedia.org/resource/Archery
p2440
(lp2441
S'Archery'
p2442
asVhttp://dbpedia.org/property/influenced
p2443
(lp2444
S'influenced'
p2445
asVhttp://dbpedia.org/resource/Japanese_Americans
p2446
(lp2447
S'Japanese Americans'
p2448
asVhttp://dbpedia.org/ontology/developer
p2449
g1905
sVhttp://dbpedia.org/ontology/almaMater
p2450
(lp2451
S'alma mater'
p2452
asVhttp://dbpedia.org/resource/Melania_Trump
p2453
(lp2454
S'Melania Trump'
p2455
asVhttp://dbpedia.org/resource/Navsari
p2456
(lp2457
S'Navsari'
p2458
asVhttp://dbpedia.org/resource/Martyr's_Memorial_A-Division_League
p2459
(lp2460
S"Martyr's Memorial A-Division League"
p2461
asVhttp://dbpedia.org/property/rkdArtistsId
p2462
(lp2463
S'RKDartists ID'
p2464
asVhttp://dbpedia.org/resource/Chee_Kong_Cheah_(CheeK)
p2465
(lp2466
S'Chee Kong Cheah (CheeK)'
p2467
asVhttp://dbpedia.org/resource/Advanced_Simulation_Library
p2468
(lp2469
S'Advanced Simulation Library'
p2470
asVhttp://dbpedia.org/property/followedBy
p2471
g799
sVhttp://dbpedia.org/ontology/iataAirlineCode
p2472
(lp2473
S'IATA reservation code'
p2474
aS'International Air Transport Association airline designator'
p2475
aS'IATA airline designator'
p2476
asVhttp://dbpedia.org/ontology/rkdArtistsId
p2477
g2463
sVhttp://dbpedia.org/ontology/employer
p2478
g814
sVhttp://dbpedia.org/ontology/type
p2479
(lp2480
S'type'
p2481
asVhttp://dbpedia.org/property/deputy
p2482
(lp2483
S'deputy'
p2484
asVhttp://dbpedia.org/resource/Red_Hat
p2485
(lp2486
S'Red Hat'
p2487
asVhttp://dbpedia.org/property/pdb
p2488
g1868
sVhttp://dbpedia.org/ontology/Writer
p2489
(lp2490
S'writer'
p2491
asVhttp://dbpedia.org/resource/HarperCollins
p2492
(lp2493
S'HarperCollins'
p2494
asVhttp://dbpedia.org/property/ethnicity
p2495
g1525
sVhttp://dbpedia.org/property/creator
p2496
(lp2497
S'creator'
p2498
aS'painters'
p2499
aS'sculptor'
p2500
aS'created by'
p2501
aS'sculptors'
p2502
aS'creators'
p2503
aS'artist (non-musical)'
p2504
aS'painter'
p2505
asVhttp://dbpedia.org/property/father
p2506
g2143
sVhttp://dbpedia.org/resource/Rahu_Ketu
p2507
(lp2508
S'Rahu Ketu'
p2509
asVhttp://dbpedia.org/property/author
p2510
(lp2511
S'writer'
p2512
aS'authors'
p2513
aS'writers'
p2514
aS'written by'
p2515
aS'author'
p2516
asVhttp://dbpedia.org/ontology/founder
p2517
g2301
sVhttp://dbpedia.org/resource/TV5_Network_Inc.
p2518
(lp2519
S'TV5 Network Inc.'
p2520
asVhttp://dbpedia.org/resource/Tejashwi_Yadav
p2521
(lp2522
S'Tejashwi Yadav'
p2523
asVhttp://dbpedia.org/property/locationCountry
p2524
(lp2525
S'location country'
p2526
asVhttp://dbpedia.org/resource/Strategy_game
p2527
(lp2528
S'Strategy game'
p2529
asVhttp://dbpedia.org/resource/Sanjog_(1943_film)
p2530
(lp2531
S'Sanjog (1943 film)'
p2532
asVhttp://dbpedia.org/resource/Sandit_Tiwari
p2533
(lp2534
S'Sandit Tiwari'
p2535
asVhttp://dbpedia.org/ontology/sudocId
p2536
(lp2537
S'IdRef'
p2538
aS'SUDOC authorities'
p2539
asVhttp://dbpedia.org/property/highwaySystem
p2540
(lp2541
S'road type'
p2542
aS'routes system'
p2543
aS'transport network'
p2544
aS'highway system'
p2545
aS'system of routes'
p2546
aS'part of network'
p2547
aS'network of routes'
p2548
asVhttp://dbpedia.org/resource/The_Macintosh_Way
p2549
(lp2550
S'The Macintosh Way'
p2551
asVhttp://dbpedia.org/property/placeOfBirth
p2552
(lp2553
S'place of birth'
p2554
asVhttp://dbpedia.org/resource/Engineer
p2555
(lp2556
S'Engineer'
p2557
asVhttp://dbpedia.org/resource/New_Delhi
p2558
(lp2559
S'New Delhi'
p2560
asVhttp://dbpedia.org/resource/Second_Show
p2561
(lp2562
S'Second Show'
p2563
asVhttp://dbpedia.org/ontology/selibrId
p2564
g1962
sVhttp://dbpedia.org/property/bnfId
p2565
g147
sVhttp://dbpedia.org/property/bSide
p2566
g1595
sVhttp://dbpedia.org/resource/Tara_International
p2567
(lp2568
S'Tara International'
p2569
asVhttp://dbpedia.org/resource/Tom_McGrath_(media_executive)
p2570
(lp2571
S'Tom McGrath (media executive)'
p2572
asVhttp://dbpedia.org/resource/Lawyer
p2573
(lp2574
S'Lawyer'
p2575
asVhttp://dbpedia.org/resource/Finder_(software)
p2576
(lp2577
S'Finder (software)'
p2578
asVhttp://dbpedia.org/ontology/architecturalStyle
p2579
g5
sVhttp://dbpedia.org/ontology/state
p2580
(lp2581
S'state'
p2582
asVhttp://dbpedia.org/resource/Edmonton
p2583
(lp2584
S'Edmonton'
p2585
asVhttp://dbpedia.org/ontology/coatOfArms
p2586
g1136
sVhttp://dbpedia.org/ontology/stadium
p2587
(lp2588
S'Stadium'
p2589
asVhttp://dbpedia.org/resource/1080i
p2590
(lp2591
S'1080i'
p2592
asVhttp://dbpedia.org/resource/Me_Aajji_Aur_Sahib
p2593
(lp2594
S'Me Aajji Aur Sahib'
p2595
asVhttp://dbpedia.org/ontology/nutsCode
p2596
(lp2597
S'NUTS code'
p2598
asVhttp://dbpedia.org/property/apparentMagnitude
p2599
g1124
sVhttp://dbpedia.org/property/musicalArtist
p2600
(lp2601
S'singer'
p2602
aS'musician'
p2603
aS'group'
p2604
aS'musical artist'
p2605
aS'music group'
p2606
aS'band'
p2607
aS'performer'
p2608
asVhttp://dbpedia.org/resource/Suresh_Shetty
p2609
(lp2610
S'Suresh Shetty'
p2611
asVhttp://dbpedia.org/resource/Glendale_Secondary_School
p2612
(lp2613
S'Glendale Secondary School'
p2614
asVhttp://dbpedia.org/property/dcc
p2615
(lp2616
S'DDC'
p2617
aS'Q48460'
p2618
aS'Dewey Decimal Classification'
p2619
asVhttp://dbpedia.org/resource/Bangladesh
p2620
(lp2621
S'Bangladesh'
p2622
asVhttp://dbpedia.org/resource/Ahmedabad
p2623
(lp2624
S'Ahmedabad'
p2625
asVhttp://dbpedia.org/ontology/illustrator
p2626
g657
sVhttp://dbpedia.org/resource/Shoot_'em_up
p2627
(lp2628
S"Shoot 'em up"
p2629
asVhttp://dbpedia.org/resource/Ron_Slenzak
p2630
(lp2631
S'Ron Slenzak'
p2632
asVhttp://dbpedia.org/ontology/religion
p2633
g1017
sVhttp://dbpedia.org/resource/K.L.E_Society's_KLE_College_of_Engineering_and_Technology
p2634
(lp2635
S"K.L.E Society's KLE College of Engineering and Technology"
p2636
asVhttp://dbpedia.org/ontology/highwaySystem
p2637
g2541
sVhttp://dbpedia.org/property/iso31661Code
p2638
g831
sVhttp://dbpedia.org/resource/Frederick_Trump
p2639
(lp2640
S'Frederick Trump'
p2641
asVhttp://dbpedia.org/resource/Southern_California_Intercollegiate_Athletic_Conference
p2642
(lp2643
S'Southern California Intercollegiate Athletic Conference'
p2644
asVhttp://dbpedia.org/resource/David_A._Stewart
p2645
(lp2646
S'David A. Stewart'
p2647
asVhttp://dbpedia.org/property/currentclub
p2648
(lp2649
S'currentclub'
p2650
asVhttp://dbpedia.org/property/emblem
p2651
(lp2652
S'seal image'
p2653
aS'emblem'
p2654
asVhttp://dbpedia.org/property/fuelSystem
p2655
g1181
sVhttp://dbpedia.org/property/discoverer
p2656
g1988
sVhttp://dbpedia.org/resource/Life_OK
p2657
(lp2658
S'Life OK'
p2659
asVhttp://dbpedia.org/resource/Fabless_manufacturing
p2660
(lp2661
S'Fabless manufacturing'
p2662
asVhttp://dbpedia.org/property/coverArtist
p2663
g366
sVhttp://dbpedia.org/resource/Mumbai_Gladiators
p2664
(lp2665
S'Mumbai Gladiators'
p2666
asVhttp://dbpedia.org/resource/Bhayanak_Maut
p2667
(lp2668
S'Bhayanak Maut'
p2669
asVhttp://dbpedia.org/property/placeOfBurial
p2670
g1342
sVhttp://dbpedia.org/ontology/industry
p2671
g1077
sVhttp://dbpedia.org/resource/B4U_(network)
p2672
(lp2673
S'B4U (network)'
p2674
asVhttp://dbpedia.org/resource/Ghayal_Once_Again
p2675
(lp2676
S'Ghayal Once Again'
p2677
asVhttp://dbpedia.org/property/crosses
p2678
g353
sVhttp://dbpedia.org/resource/National_League_Cricket_(Nepal)
p2679
(lp2680
S'National League Cricket (Nepal)'
p2681
asVhttp://dbpedia.org/property/coden
p2682
g255
sVhttp://dbpedia.org/resource/BBC
p2683
(lp2684
S'BBC'
p2685
asVhttp://dbpedia.org/resource/Software
p2686
(lp2687
S'Software'
p2688
asVhttp://dbpedia.org/property/iataAirlineCode
p2689
g2473
sVhttp://dbpedia.org/ontology/Building
p2690
(lp2691
S'building'
p2692
asVhttp://dbpedia.org/ontology/affiliation
p2693
(lp2694
S'affiliation'
p2695
asVhttp://dbpedia.org/resource/Indian_National_Congress
p2696
(lp2697
S'Indian National Congress'
p2698
asVhttp://dbpedia.org/resource/New_Hyde_Park,_New_York
p2699
(lp2700
S'New Hyde Park, New York'
p2701
asVhttp://dbpedia.org/resource/Don_Bradman
p2702
(lp2703
S'Don Bradman'
p2704
asVhttp://dbpedia.org/property/occupation
p2705
g965
sVhttp://dbpedia.org/resource/Remote_Install_Mac_OS_X
p2706
(lp2707
S'Remote Install Mac OS X'
p2708
asVhttp://dbpedia.org/resource/Marla_Maples
p2709
(lp2710
S'Marla Maples'
p2711
asVhttp://dbpedia.org/ontology/eyeColor
p2712
g2383
sVhttp://dbpedia.org/ontology/giniCoefficient
p2713
(lp2714
S'Gini coefficient'
p2715
asVhttp://dbpedia.org/resource/Tara_Conner
p2716
(lp2717
S'Tara Conner'
p2718
asVhttp://dbpedia.org/resource/The_Apprentice:_Martha_Stewart
p2719
(lp2720
S'The Apprentice: Martha Stewart'
p2721
asVhttp://dbpedia.org/property/endDate
p2722
(lp2723
S'end date'
p2724
aS'endtime'
p2725
aS'enddate'
p2726
aS'left office'
p2727
aS'divorced'
p2728
aS'to time'
p2729
aS'end time'
p2730
aS'cease date'
p2731
aS'to'
p2732
aS'dissolved'
p2733
aS'closed'
p2734
aS'cease time'
p2735
aS'ending'
p2736
aS'fall date'
p2737
aS'until'
p2738
asVhttp://dbpedia.org/resource/Trump_Entrepreneur_Initiative
p2739
(lp2740
S'Trump Entrepreneur Initiative'
p2741
asVhttp://dbpedia.org/ontology/deathPlace
p2742
g2408
sVhttp://dbpedia.org/resource/Himmanshoo_A._Malhotra
p2743
(lp2744
S'Himmanshoo A. Malhotra'
p2745
asVhttp://dbpedia.org/resource/Apple_Public_Source_License
p2746
(lp2747
S'Apple Public Source License'
p2748
asVhttp://dbpedia.org/property/sudocId
p2749
g2537
sVhttp://dbpedia.org/resource/Martha_Stewart
p2750
(lp2751
S'Martha Stewart'
p2752
asVhttp://dbpedia.org/resource/Dil_Kya_Kare
p2753
(lp2754
S'Dil Kya Kare'
p2755
asVhttp://dbpedia.org/resource/Gary_M._Green
p2756
(lp2757
S'Gary M. Green'
p2758
asVhttp://dbpedia.org/resource/Tectoy
p2759
(lp2760
S'Tectoy'
p2761
asVhttp://dbpedia.org/ontology/genre
p2762
g1217
sVhttp://dbpedia.org/ontology/diseasesDb
p2763
g1503
sVhttp://dbpedia.org/property/operatingSystem
p2764
(lp2765
S'operating system'
p2766
asVhttp://dbpedia.org/resource/Avinash_Sachdev
p2767
(lp2768
S'Avinash Sachdev'
p2769
asVhttp://dbpedia.org/ontology/anthem
p2770
g1147
sVhttp://dbpedia.org/resource/Log_Kya_Kahenge
p2771
(lp2772
S'Log Kya Kahenge'
p2773
asVhttp://dbpedia.org/resource/Dulha_Mil_Gaya
p2774
(lp2775
S'Dulha Mil Gaya'
p2776
asVhttp://dbpedia.org/ontology/OfficeHolder
p2777
(lp2778
S'office holder'
p2779
asVhttp://dbpedia.org/property/successor
p2780
(lp2781
S'successor'
p2782
asVhttp://dbpedia.org/property/icaoAirlineCode
p2783
g1184
sVhttp://dbpedia.org/resource/Andrew_Rossi
p2784
(lp2785
S'Andrew Rossi'
p2786
asVhttp://dbpedia.org/resource/Sergio_Marchionne
p2787
(lp2788
S'Sergio Marchionne'
p2789
asVhttp://dbpedia.org/property/citizenship
p2790
g712
sVhttp://dbpedia.org/resource/Penny_Johnson_Jerald
p2791
(lp2792
S'Penny Johnson Jerald'
p2793
asVhttp://dbpedia.org/property/executiveProducer
p2794
(lp2795
S'executive producer'
p2796
asVhttp://dbpedia.org/ontology/Software
p2797
(lp2798
S'software'
p2799
asVhttp://dbpedia.org/property/license
p2800
(lp2801
S'licence'
p2802
aS'content licence'
p2803
aS'license'
p2804
aS'content license'
p2805
asVhttp://dbpedia.org/property/crewMember
p2806
g841
sVhttp://dbpedia.org/ontology/emblem
p2807
g2652
sVhttp://dbpedia.org/resource/Commodore_International
p2808
(lp2809
S'Commodore International'
p2810
asVhttp://dbpedia.org/ontology/parent
p2811
(lp2812
S'parent'
p2813
asVhttp://dbpedia.org/resource/India
p2814
(lp2815
S'India'
p2816
asVhttp://dbpedia.org/resource/Bob_Iger
p2817
(lp2818
S'Bob Iger'
p2819
asVhttp://dbpedia.org/resource/MTV
p2820
(lp2821
S'MTV'
p2822
asVhttp://dbpedia.org/resource/BBC_Worldwide
p2823
(lp2824
S'BBC Worldwide'
p2825
asVhttp://dbpedia.org/ontology/iso6392Code
p2826
g1568
sVhttp://dbpedia.org/property/league
p2827
g1642
sVhttp://dbpedia.org/ontology/spouse
p2828
g769
sVhttp://dbpedia.org/ontology/Food
p2829
(lp2830
S'Food'
p2831
asVhttp://dbpedia.org/ontology/instrument
p2832
g1370
sVhttp://dbpedia.org/resource/Subhash_Desai
p2833
(lp2834
S'Subhash Desai'
p2835
asVhttp://dbpedia.org/resource/The_Apprentice_(U.S._TV_series)
p2836
(lp2837
S'The Apprentice (U.S. TV series)'
p2838
asVhttp://dbpedia.org/resource/ONGC_F.C.
p2839
(lp2840
S'ONGC F.C.'
p2841
asVhttp://dbpedia.org/ontology/foundingDate
p2842
(lp2843
S'construction date'
p2844
aS'date commenced'
p2845
aS'written on date'
p2846
aS'date founded'
p2847
aS'founded'
p2848
aS'year created'
p2849
aS'establishment date'
p2850
aS'time of inception'
p2851
aS'formation date'
p2852
aS'constructed'
p2853
aS'year founded'
p2854
aS'established'
p2855
aS'date created'
p2856
aS'formed on date'
p2857
aS'inititated'
p2858
aS'date constructed'
p2859
aS'foundation/creation date'
p2860
aS'date of creation'
p2861
aS'year commenced'
p2862
aS'year established'
p2863
aS'date formed'
p2864
aS'date of foundation or creation'
p2865
aS'date of establishment'
p2866
aS'foundation'
p2867
aS'date of foundation'
p2868
aS'year incorporated'
p2869
aS'created on date'
p2870
aS'dedication date'
p2871
aS'formed in'
p2872
aS'established on date'
p2873
aS'founding date'
p2874
aS'commencement date'
p2875
aS'inception'
p2876
aS'time of foundation or creation'
p2877
aS'year written'
p2878
aS'date incorporated'
p2879
aS'formed at'
p2880
aS'date of incorporation'
p2881
aS'created'
p2882
aS'creation date'
p2883
aS'commenced on date'
p2884
aS'incorporation date'
p2885
aS'founded on date'
p2886
aS'date of commencement'
p2887
aS'foundation date'
p2888
aS'incorporated'
p2889
aS'formation'
p2890
aS'date of founding'
p2891
aS'incorporated on date'
p2892
asVhttp://dbpedia.org/resource/Rise_of_the_Zombie
p2893
(lp2894
S'Rise of the Zombie'
p2895
asVhttp://dbpedia.org/resource/Shrimaan_Shrimati_(TV_series)
p2896
(lp2897
S'Shrimaan Shrimati (TV series)'
p2898
asVhttp://dbpedia.org/resource/Chennai
p2899
(lp2900
S'Chennai'
p2901
asVhttp://dbpedia.org/resource/Strategy_First
p2902
(lp2903
S'Strategy First'
p2904
asVhttp://dbpedia.org/resource/Baaghi:_Rebels_in_Love
p2905
(lp2906
S'Baaghi: Rebels in Love'
p2907
asVhttp://dbpedia.org/resource/MicroProse
p2908
(lp2909
S'MicroProse'
p2910
asVhttp://dbpedia.org/ontology/InformationAppliance
p2911
(lp2912
S'information appliance'
p2913
asVhttp://dbpedia.org/resource/Perl
p2914
(lp2915
S'Perl'
p2916
asVhttp://dbpedia.org/resource/Ayesha_Dutt
p2917
(lp2918
S'Ayesha Dutt'
p2919
asVhttp://dbpedia.org/resource/Markham,_Ontario
p2920
(lp2921
S'Markham, Ontario'
p2922
asVhttp://dbpedia.org/ontology/dcc
p2923
g2616
sVhttp://dbpedia.org/resource/Morton_E._Handel
p2924
(lp2925
S'Morton E. Handel'
p2926
asVhttp://dbpedia.org/property/starring
p2927
g2287
sVhttp://dbpedia.org/resource/Constituency_NA-56
p2928
(lp2929
S'Constituency NA-56'
p2930
asVhttp://dbpedia.org/property/orcidId
p2931
g2389
sVhttp://dbpedia.org/resource/Truemors
p2932
(lp2933
S'Truemors'
p2934
asVhttp://dbpedia.org/ontology/license
p2935
g2801
sVhttp://dbpedia.org/resource/Junoon_(1978_film)
p2936
(lp2937
S'Junoon (1978 film)'
p2938
asVhttp://dbpedia.org/resource/B4U_Music
p2939
(lp2940
S'B4U Music'
p2941
asVhttp://dbpedia.org/property/relatives
p2942
(lp2943
S'relatives'
p2944
asVhttp://dbpedia.org/property/constellation
p2945
g2207
sVhttp://dbpedia.org/resource/Eric,_or,_Little_by_Little
p2946
(lp2947
S'Eric, or, Little by Little'
p2948
asVhttp://dbpedia.org/resource/Dungeness_(headland)
p2949
(lp2950
S'Dungeness (headland)'
p2951
asVhttp://dbpedia.org/property/unloCode
p2952
g1833
sVhttp://dbpedia.org/ontology/Book
p2953
(lp2954
S'book'
p2955
asVhttp://dbpedia.org/ontology/endDate
p2956
g2723
sVhttp://dbpedia.org/ontology/musicalArtist
p2957
g2601
sVhttp://dbpedia.org/ontology/deathCause
p2958
g1398
sVhttp://dbpedia.org/property/alias
p2959
g1855
sVhttp://dbpedia.org/ontology/flag
p2960
g681
sVhttp://dbpedia.org/property/writer
p2961
(lp2962
S'writer'
p2963
asVhttp://dbpedia.org/resource/Aandhali_Koshimbir
p2964
(lp2965
S'Aandhali Koshimbir'
p2966
asVhttp://dbpedia.org/resource/Jack_Ketchum
p2967
(lp2968
S'Jack Ketchum'
p2969
asVhttp://dbpedia.org/resource/Launchd
p2970
(lp2971
S'Launchd'
p2972
asVhttp://dbpedia.org/resource/Sony_MAX_2
p2973
(lp2974
S'Sony MAX 2'
p2975
asVhttp://dbpedia.org/ontology/einecsNumber
p2976
g635
sVhttp://dbpedia.org/resource/Quikr
p2977
(lp2978
S'Quikr'
p2979
asVhttp://dbpedia.org/ontology/network
p2980
(lp2981
S'network'
p2982
asVhttp://dbpedia.org/ontology/owner
p2983
g1482
sVhttp://dbpedia.org/property/giniCoefficient
p2984
g2714
sVhttp://dbpedia.org/resource/Apple_University
p2985
(lp2986
S'Apple University'
p2987
asVhttp://dbpedia.org/resource/Magic_Mouse
p2988
(lp2989
S'Magic Mouse'
p2990
asVhttp://dbpedia.org/property/recorded
p2991
(lp2992
S'Recorded'
p2993
asVhttp://dbpedia.org/ontology/doctoralStudent
p2994
g1322
sVhttp://dbpedia.org/ontology/deputy
p2995
(lp2996
S'deputy'
p2997
asVhttp://dbpedia.org/resource/Sun_Microsystems
p2998
(lp2999
S'Sun Microsystems'
p3000
asVhttp://dbpedia.org/property/orientation
p3001
g1912
sVhttp://dbpedia.org/property/ecNumber
p3002
g1262
sVhttp://dbpedia.org/resource/Mark_Burnett
p3003
(lp3004
S'Mark Burnett'
p3005
asVhttp://dbpedia.org/property/foundingDate
p3006
g2843
sVhttp://dbpedia.org/resource/Film
p3007
(lp3008
S'Film'
p3009
asVhttp://dbpedia.org/property/iso6391Code
p3010
g1544
sVhttp://dbpedia.org/property/discovered
p3011
g1953
sVhttp://dbpedia.org/resource/Veeru_Devgan
p3012
(lp3013
S'Veeru Devgan'
p3014
asVhttp://dbpedia.org/resource/Sony_Earth
p3015
(lp3016
S'Sony Earth'
p3017
asVhttp://dbpedia.org/resource/Dhoom_3
p3018
(lp3019
S'Dhoom 3'
p3020
asVhttp://dbpedia.org/property/okatoCode
p3021
g1213
sVhttp://dbpedia.org/resource/Steve_Capps
p3022
(lp3023
S'Steve Capps'
p3024
asVhttp://dbpedia.org/resource/Darwin_Streaming_Server
p3025
(lp3026
S'Darwin Streaming Server'
p3027
asVhttp://dbpedia.org/property/constructionMaterial
p3028
g1666
sVhttp://dbpedia.org/ontology/follows
p3029
g322
sVhttp://dbpedia.org/property/signature
p3030
g1169
sVhttp://dbpedia.org/resource/Entertainment
p3031
(lp3032
S'Entertainment'
p3033
asVhttp://dbpedia.org/ontology/handedness
p3034
g1865
sVhttp://dbpedia.org/resource/Sohrab_Modi
p3035
(lp3036
S'Sohrab Modi'
p3037
asVhttp://dbpedia.org/property/parent
p3038
(lp3039
S'parent'
p3040
asVhttp://dbpedia.org/resource/Eric_Trump
p3041
(lp3042
S'Eric Trump'
p3043
asVhttp://dbpedia.org/property/language
p3044
(lp3045
S'language'
p3046
asVhttp://dbpedia.org/resource/Indian_Standard_Time
p3047
(lp3048
S'Indian Standard Time'
p3049
asVhttp://dbpedia.org/resource/Raju_Basnyat
p3050
(lp3051
S'Raju Basnyat'
p3052
asVhttp://dbpedia.org/resource/Christianity
p3053
(lp3054
S'Christianity'
p3055
asVhttp://dbpedia.org/ontology/creator
p3056
g2497
sVhttp://dbpedia.org/property/icd10
p3057
g1779
sVhttp://dbpedia.org/resource/Tunnelling_Process_Control
p3058
(lp3059
S'Tunnelling Process Control'
p3060
asVhttp://dbpedia.org/ontology/author
p3061
g2511
sVhttp://dbpedia.org/resource/Kolkata
p3062
(lp3063
S'Kolkata'
p3064
asVhttp://dbpedia.org/resource/Reality_television
p3065
(lp3066
S'Reality television'
p3067
asVhttp://dbpedia.org/resource/England
p3068
(lp3069
S'England'
p3070
asVhttp://dbpedia.org/property/inseeCode
p3071
g454
sVhttp://dbpedia.org/ontology/headquarter
p3072
g593
sVhttp://dbpedia.org/property/istat
p3073
g2156
sVhttp://dbpedia.org/ontology/doctoralAdvisor
p3074
g1759
sVhttp://dbpedia.org/ontology/SportsTeam
p3075
(lp3076
S'sports team'
p3077
asVhttp://dbpedia.org/resource/Guy_Kawasaki
p3078
(lp3079
S'Guy Kawasaki'
p3080
asVhttp://dbpedia.org/ontology/language
p3081
(lp3082
S'language'
p3083
asVhttp://dbpedia.org/property/populationTotal
p3084
g426
sVhttp://dbpedia.org/resource/N.O.V.A._Near_Orbit_Vanguard_Alliance
p3085
(lp3086
S'N.O.V.A. Near Orbit Vanguard Alliance'
p3087
asVhttp://dbpedia.org/resource/Nalini_Jaywant
p3088
(lp3089
S'Nalini Jaywant'
p3090
asVhttp://dbpedia.org/resource/Etess_Arena
p3091
(lp3092
S'Etess Arena'
p3093
asVhttp://dbpedia.org/property/sport
p3094
(lp3095
S'sport'
p3096
asVhttp://dbpedia.org/resource/Association_of_Southeast_Asian_Institutions_of_Higher_Learning
p3097
(lp3098
S'Association of Southeast Asian Institutions of Higher Learning'
p3099
asVhttp://dbpedia.org/resource/Colombo
p3100
(lp3101
S'Colombo'
p3102
asVhttp://dbpedia.org/resource/MacVector
p3103
(lp3104
S'MacVector'
p3105
asVhttp://dbpedia.org/resource/Suburb
p3106
(lp3107
S'Suburb'
p3108
asVhttp://dbpedia.org/resource/Waterlooville
p3109
(lp3110
S'Waterlooville'
p3111
asVhttp://dbpedia.org/resource/Wales
p3112
(lp3113
S'Wales'
p3114
asVhttp://dbpedia.org/property/nutsCode
p3115
g2597
sVhttp://dbpedia.org/ontology/series
p3116
(lp3117
S'series'
p3118
asVhttp://dbpedia.org/ontology/amgid
p3119
g620
sVhttp://dbpedia.org/resource/Poonam_Mahajan
p3120
(lp3121
S'Poonam Mahajan'
p3122
asVhttp://dbpedia.org/resource/Apache_Software_Foundation
p3123
(lp3124
S'Apache Software Foundation'
p3125
as.